
NTI_CCGroup.elf:     file format elf32-avr

Sections:
Idx Name          Size      VMA       LMA       File off  Algn
  0 .text         00002496  00000000  00000000  00000094  2**1
                  CONTENTS, ALLOC, LOAD, READONLY, CODE
  1 .data         00000118  00800060  00002496  0000252a  2**0
                  CONTENTS, ALLOC, LOAD, DATA
  2 .bss          0000000f  00800178  00800178  00002642  2**0
                  ALLOC
  3 .stab         000041dc  00000000  00000000  00002644  2**2
                  CONTENTS, READONLY, DEBUGGING
  4 .stabstr      00001c5e  00000000  00000000  00006820  2**0
                  CONTENTS, READONLY, DEBUGGING
  5 .debug_aranges 00000160  00000000  00000000  0000847e  2**0
                  CONTENTS, READONLY, DEBUGGING
  6 .debug_pubnames 000001b6  00000000  00000000  000085de  2**0
                  CONTENTS, READONLY, DEBUGGING
  7 .debug_info   00001f0d  00000000  00000000  00008794  2**0
                  CONTENTS, READONLY, DEBUGGING
  8 .debug_abbrev 000010d2  00000000  00000000  0000a6a1  2**0
                  CONTENTS, READONLY, DEBUGGING
  9 .debug_line   00001030  00000000  00000000  0000b773  2**0
                  CONTENTS, READONLY, DEBUGGING
 10 .debug_frame  00000180  00000000  00000000  0000c7a4  2**2
                  CONTENTS, READONLY, DEBUGGING
 11 .debug_str    000002e6  00000000  00000000  0000c924  2**0
                  CONTENTS, READONLY, DEBUGGING
 12 .debug_loc    000008f6  00000000  00000000  0000cc0a  2**0
                  CONTENTS, READONLY, DEBUGGING
 13 .debug_ranges 00000050  00000000  00000000  0000d500  2**0
                  CONTENTS, READONLY, DEBUGGING

Disassembly of section .text:

00000000 <__vectors>:
       0:	0c 94 2a 00 	jmp	0x54	; 0x54 <__ctors_end>
       4:	0c 94 47 00 	jmp	0x8e	; 0x8e <__bad_interrupt>
       8:	0c 94 47 00 	jmp	0x8e	; 0x8e <__bad_interrupt>
       c:	0c 94 47 00 	jmp	0x8e	; 0x8e <__bad_interrupt>
      10:	0c 94 47 00 	jmp	0x8e	; 0x8e <__bad_interrupt>
      14:	0c 94 47 00 	jmp	0x8e	; 0x8e <__bad_interrupt>
      18:	0c 94 47 00 	jmp	0x8e	; 0x8e <__bad_interrupt>
      1c:	0c 94 47 00 	jmp	0x8e	; 0x8e <__bad_interrupt>
      20:	0c 94 47 00 	jmp	0x8e	; 0x8e <__bad_interrupt>
      24:	0c 94 47 00 	jmp	0x8e	; 0x8e <__bad_interrupt>
      28:	0c 94 eb 07 	jmp	0xfd6	; 0xfd6 <__vector_10>
      2c:	0c 94 47 00 	jmp	0x8e	; 0x8e <__bad_interrupt>
      30:	0c 94 47 00 	jmp	0x8e	; 0x8e <__bad_interrupt>
      34:	0c 94 47 00 	jmp	0x8e	; 0x8e <__bad_interrupt>
      38:	0c 94 47 00 	jmp	0x8e	; 0x8e <__bad_interrupt>
      3c:	0c 94 47 00 	jmp	0x8e	; 0x8e <__bad_interrupt>
      40:	0c 94 47 00 	jmp	0x8e	; 0x8e <__bad_interrupt>
      44:	0c 94 47 00 	jmp	0x8e	; 0x8e <__bad_interrupt>
      48:	0c 94 47 00 	jmp	0x8e	; 0x8e <__bad_interrupt>
      4c:	0c 94 47 00 	jmp	0x8e	; 0x8e <__bad_interrupt>
      50:	0c 94 47 00 	jmp	0x8e	; 0x8e <__bad_interrupt>

00000054 <__ctors_end>:
      54:	11 24       	eor	r1, r1
      56:	1f be       	out	0x3f, r1	; 63
      58:	cf e5       	ldi	r28, 0x5F	; 95
      5a:	d8 e0       	ldi	r29, 0x08	; 8
      5c:	de bf       	out	0x3e, r29	; 62
      5e:	cd bf       	out	0x3d, r28	; 61

00000060 <__do_copy_data>:
      60:	11 e0       	ldi	r17, 0x01	; 1
      62:	a0 e6       	ldi	r26, 0x60	; 96
      64:	b0 e0       	ldi	r27, 0x00	; 0
      66:	e6 e9       	ldi	r30, 0x96	; 150
      68:	f4 e2       	ldi	r31, 0x24	; 36
      6a:	02 c0       	rjmp	.+4      	; 0x70 <.do_copy_data_start>

0000006c <.do_copy_data_loop>:
      6c:	05 90       	lpm	r0, Z+
      6e:	0d 92       	st	X+, r0

00000070 <.do_copy_data_start>:
      70:	a8 37       	cpi	r26, 0x78	; 120
      72:	b1 07       	cpc	r27, r17
      74:	d9 f7       	brne	.-10     	; 0x6c <.do_copy_data_loop>

00000076 <__do_clear_bss>:
      76:	11 e0       	ldi	r17, 0x01	; 1
      78:	a8 e7       	ldi	r26, 0x78	; 120
      7a:	b1 e0       	ldi	r27, 0x01	; 1
      7c:	01 c0       	rjmp	.+2      	; 0x80 <.do_clear_bss_start>

0000007e <.do_clear_bss_loop>:
      7e:	1d 92       	st	X+, r1

00000080 <.do_clear_bss_start>:
      80:	a7 38       	cpi	r26, 0x87	; 135
      82:	b1 07       	cpc	r27, r17
      84:	e1 f7       	brne	.-8      	; 0x7e <.do_clear_bss_loop>
      86:	0e 94 96 11 	call	0x232c	; 0x232c <main>
      8a:	0c 94 49 12 	jmp	0x2492	; 0x2492 <_exit>

0000008e <__bad_interrupt>:
      8e:	0c 94 00 00 	jmp	0	; 0x0 <__vectors>

00000092 <__fixunssfsi>:
      92:	ef 92       	push	r14
      94:	ff 92       	push	r15
      96:	0f 93       	push	r16
      98:	1f 93       	push	r17
      9a:	7b 01       	movw	r14, r22
      9c:	8c 01       	movw	r16, r24
      9e:	20 e0       	ldi	r18, 0x00	; 0
      a0:	30 e0       	ldi	r19, 0x00	; 0
      a2:	40 e0       	ldi	r20, 0x00	; 0
      a4:	5f e4       	ldi	r21, 0x4F	; 79
      a6:	0e 94 c5 03 	call	0x78a	; 0x78a <__gesf2>
      aa:	88 23       	and	r24, r24
      ac:	8c f0       	brlt	.+34     	; 0xd0 <__fixunssfsi+0x3e>
      ae:	c8 01       	movw	r24, r16
      b0:	b7 01       	movw	r22, r14
      b2:	20 e0       	ldi	r18, 0x00	; 0
      b4:	30 e0       	ldi	r19, 0x00	; 0
      b6:	40 e0       	ldi	r20, 0x00	; 0
      b8:	5f e4       	ldi	r21, 0x4F	; 79
      ba:	0e 94 c1 01 	call	0x382	; 0x382 <__subsf3>
      be:	0e 94 f5 03 	call	0x7ea	; 0x7ea <__fixsfsi>
      c2:	9b 01       	movw	r18, r22
      c4:	ac 01       	movw	r20, r24
      c6:	20 50       	subi	r18, 0x00	; 0
      c8:	30 40       	sbci	r19, 0x00	; 0
      ca:	40 40       	sbci	r20, 0x00	; 0
      cc:	50 48       	sbci	r21, 0x80	; 128
      ce:	06 c0       	rjmp	.+12     	; 0xdc <__fixunssfsi+0x4a>
      d0:	c8 01       	movw	r24, r16
      d2:	b7 01       	movw	r22, r14
      d4:	0e 94 f5 03 	call	0x7ea	; 0x7ea <__fixsfsi>
      d8:	9b 01       	movw	r18, r22
      da:	ac 01       	movw	r20, r24
      dc:	b9 01       	movw	r22, r18
      de:	ca 01       	movw	r24, r20
      e0:	1f 91       	pop	r17
      e2:	0f 91       	pop	r16
      e4:	ff 90       	pop	r15
      e6:	ef 90       	pop	r14
      e8:	08 95       	ret

000000ea <_fpadd_parts>:
      ea:	a0 e0       	ldi	r26, 0x00	; 0
      ec:	b0 e0       	ldi	r27, 0x00	; 0
      ee:	eb e7       	ldi	r30, 0x7B	; 123
      f0:	f0 e0       	ldi	r31, 0x00	; 0
      f2:	0c 94 12 12 	jmp	0x2424	; 0x2424 <__prologue_saves__>
      f6:	dc 01       	movw	r26, r24
      f8:	2b 01       	movw	r4, r22
      fa:	fa 01       	movw	r30, r20
      fc:	9c 91       	ld	r25, X
      fe:	92 30       	cpi	r25, 0x02	; 2
     100:	08 f4       	brcc	.+2      	; 0x104 <_fpadd_parts+0x1a>
     102:	39 c1       	rjmp	.+626    	; 0x376 <_fpadd_parts+0x28c>
     104:	eb 01       	movw	r28, r22
     106:	88 81       	ld	r24, Y
     108:	82 30       	cpi	r24, 0x02	; 2
     10a:	08 f4       	brcc	.+2      	; 0x10e <_fpadd_parts+0x24>
     10c:	33 c1       	rjmp	.+614    	; 0x374 <_fpadd_parts+0x28a>
     10e:	94 30       	cpi	r25, 0x04	; 4
     110:	69 f4       	brne	.+26     	; 0x12c <_fpadd_parts+0x42>
     112:	84 30       	cpi	r24, 0x04	; 4
     114:	09 f0       	breq	.+2      	; 0x118 <_fpadd_parts+0x2e>
     116:	2f c1       	rjmp	.+606    	; 0x376 <_fpadd_parts+0x28c>
     118:	11 96       	adiw	r26, 0x01	; 1
     11a:	9c 91       	ld	r25, X
     11c:	11 97       	sbiw	r26, 0x01	; 1
     11e:	89 81       	ldd	r24, Y+1	; 0x01
     120:	98 17       	cp	r25, r24
     122:	09 f4       	brne	.+2      	; 0x126 <_fpadd_parts+0x3c>
     124:	28 c1       	rjmp	.+592    	; 0x376 <_fpadd_parts+0x28c>
     126:	a0 e6       	ldi	r26, 0x60	; 96
     128:	b0 e0       	ldi	r27, 0x00	; 0
     12a:	25 c1       	rjmp	.+586    	; 0x376 <_fpadd_parts+0x28c>
     12c:	84 30       	cpi	r24, 0x04	; 4
     12e:	09 f4       	brne	.+2      	; 0x132 <_fpadd_parts+0x48>
     130:	21 c1       	rjmp	.+578    	; 0x374 <_fpadd_parts+0x28a>
     132:	82 30       	cpi	r24, 0x02	; 2
     134:	a9 f4       	brne	.+42     	; 0x160 <_fpadd_parts+0x76>
     136:	92 30       	cpi	r25, 0x02	; 2
     138:	09 f0       	breq	.+2      	; 0x13c <_fpadd_parts+0x52>
     13a:	1d c1       	rjmp	.+570    	; 0x376 <_fpadd_parts+0x28c>
     13c:	9a 01       	movw	r18, r20
     13e:	ad 01       	movw	r20, r26
     140:	88 e0       	ldi	r24, 0x08	; 8
     142:	ea 01       	movw	r28, r20
     144:	09 90       	ld	r0, Y+
     146:	ae 01       	movw	r20, r28
     148:	e9 01       	movw	r28, r18
     14a:	09 92       	st	Y+, r0
     14c:	9e 01       	movw	r18, r28
     14e:	81 50       	subi	r24, 0x01	; 1
     150:	c1 f7       	brne	.-16     	; 0x142 <_fpadd_parts+0x58>
     152:	e2 01       	movw	r28, r4
     154:	89 81       	ldd	r24, Y+1	; 0x01
     156:	11 96       	adiw	r26, 0x01	; 1
     158:	9c 91       	ld	r25, X
     15a:	89 23       	and	r24, r25
     15c:	81 83       	std	Z+1, r24	; 0x01
     15e:	08 c1       	rjmp	.+528    	; 0x370 <_fpadd_parts+0x286>
     160:	92 30       	cpi	r25, 0x02	; 2
     162:	09 f4       	brne	.+2      	; 0x166 <_fpadd_parts+0x7c>
     164:	07 c1       	rjmp	.+526    	; 0x374 <_fpadd_parts+0x28a>
     166:	12 96       	adiw	r26, 0x02	; 2
     168:	2d 90       	ld	r2, X+
     16a:	3c 90       	ld	r3, X
     16c:	13 97       	sbiw	r26, 0x03	; 3
     16e:	eb 01       	movw	r28, r22
     170:	8a 81       	ldd	r24, Y+2	; 0x02
     172:	9b 81       	ldd	r25, Y+3	; 0x03
     174:	14 96       	adiw	r26, 0x04	; 4
     176:	ad 90       	ld	r10, X+
     178:	bd 90       	ld	r11, X+
     17a:	cd 90       	ld	r12, X+
     17c:	dc 90       	ld	r13, X
     17e:	17 97       	sbiw	r26, 0x07	; 7
     180:	ec 80       	ldd	r14, Y+4	; 0x04
     182:	fd 80       	ldd	r15, Y+5	; 0x05
     184:	0e 81       	ldd	r16, Y+6	; 0x06
     186:	1f 81       	ldd	r17, Y+7	; 0x07
     188:	91 01       	movw	r18, r2
     18a:	28 1b       	sub	r18, r24
     18c:	39 0b       	sbc	r19, r25
     18e:	b9 01       	movw	r22, r18
     190:	37 ff       	sbrs	r19, 7
     192:	04 c0       	rjmp	.+8      	; 0x19c <_fpadd_parts+0xb2>
     194:	66 27       	eor	r22, r22
     196:	77 27       	eor	r23, r23
     198:	62 1b       	sub	r22, r18
     19a:	73 0b       	sbc	r23, r19
     19c:	60 32       	cpi	r22, 0x20	; 32
     19e:	71 05       	cpc	r23, r1
     1a0:	0c f0       	brlt	.+2      	; 0x1a4 <_fpadd_parts+0xba>
     1a2:	61 c0       	rjmp	.+194    	; 0x266 <_fpadd_parts+0x17c>
     1a4:	12 16       	cp	r1, r18
     1a6:	13 06       	cpc	r1, r19
     1a8:	6c f5       	brge	.+90     	; 0x204 <_fpadd_parts+0x11a>
     1aa:	37 01       	movw	r6, r14
     1ac:	48 01       	movw	r8, r16
     1ae:	06 2e       	mov	r0, r22
     1b0:	04 c0       	rjmp	.+8      	; 0x1ba <_fpadd_parts+0xd0>
     1b2:	96 94       	lsr	r9
     1b4:	87 94       	ror	r8
     1b6:	77 94       	ror	r7
     1b8:	67 94       	ror	r6
     1ba:	0a 94       	dec	r0
     1bc:	d2 f7       	brpl	.-12     	; 0x1b2 <_fpadd_parts+0xc8>
     1be:	21 e0       	ldi	r18, 0x01	; 1
     1c0:	30 e0       	ldi	r19, 0x00	; 0
     1c2:	40 e0       	ldi	r20, 0x00	; 0
     1c4:	50 e0       	ldi	r21, 0x00	; 0
     1c6:	04 c0       	rjmp	.+8      	; 0x1d0 <_fpadd_parts+0xe6>
     1c8:	22 0f       	add	r18, r18
     1ca:	33 1f       	adc	r19, r19
     1cc:	44 1f       	adc	r20, r20
     1ce:	55 1f       	adc	r21, r21
     1d0:	6a 95       	dec	r22
     1d2:	d2 f7       	brpl	.-12     	; 0x1c8 <_fpadd_parts+0xde>
     1d4:	21 50       	subi	r18, 0x01	; 1
     1d6:	30 40       	sbci	r19, 0x00	; 0
     1d8:	40 40       	sbci	r20, 0x00	; 0
     1da:	50 40       	sbci	r21, 0x00	; 0
     1dc:	2e 21       	and	r18, r14
     1de:	3f 21       	and	r19, r15
     1e0:	40 23       	and	r20, r16
     1e2:	51 23       	and	r21, r17
     1e4:	21 15       	cp	r18, r1
     1e6:	31 05       	cpc	r19, r1
     1e8:	41 05       	cpc	r20, r1
     1ea:	51 05       	cpc	r21, r1
     1ec:	21 f0       	breq	.+8      	; 0x1f6 <_fpadd_parts+0x10c>
     1ee:	21 e0       	ldi	r18, 0x01	; 1
     1f0:	30 e0       	ldi	r19, 0x00	; 0
     1f2:	40 e0       	ldi	r20, 0x00	; 0
     1f4:	50 e0       	ldi	r21, 0x00	; 0
     1f6:	79 01       	movw	r14, r18
     1f8:	8a 01       	movw	r16, r20
     1fa:	e6 28       	or	r14, r6
     1fc:	f7 28       	or	r15, r7
     1fe:	08 29       	or	r16, r8
     200:	19 29       	or	r17, r9
     202:	3c c0       	rjmp	.+120    	; 0x27c <_fpadd_parts+0x192>
     204:	23 2b       	or	r18, r19
     206:	d1 f1       	breq	.+116    	; 0x27c <_fpadd_parts+0x192>
     208:	26 0e       	add	r2, r22
     20a:	37 1e       	adc	r3, r23
     20c:	35 01       	movw	r6, r10
     20e:	46 01       	movw	r8, r12
     210:	06 2e       	mov	r0, r22
     212:	04 c0       	rjmp	.+8      	; 0x21c <_fpadd_parts+0x132>
     214:	96 94       	lsr	r9
     216:	87 94       	ror	r8
     218:	77 94       	ror	r7
     21a:	67 94       	ror	r6
     21c:	0a 94       	dec	r0
     21e:	d2 f7       	brpl	.-12     	; 0x214 <_fpadd_parts+0x12a>
     220:	21 e0       	ldi	r18, 0x01	; 1
     222:	30 e0       	ldi	r19, 0x00	; 0
     224:	40 e0       	ldi	r20, 0x00	; 0
     226:	50 e0       	ldi	r21, 0x00	; 0
     228:	04 c0       	rjmp	.+8      	; 0x232 <_fpadd_parts+0x148>
     22a:	22 0f       	add	r18, r18
     22c:	33 1f       	adc	r19, r19
     22e:	44 1f       	adc	r20, r20
     230:	55 1f       	adc	r21, r21
     232:	6a 95       	dec	r22
     234:	d2 f7       	brpl	.-12     	; 0x22a <_fpadd_parts+0x140>
     236:	21 50       	subi	r18, 0x01	; 1
     238:	30 40       	sbci	r19, 0x00	; 0
     23a:	40 40       	sbci	r20, 0x00	; 0
     23c:	50 40       	sbci	r21, 0x00	; 0
     23e:	2a 21       	and	r18, r10
     240:	3b 21       	and	r19, r11
     242:	4c 21       	and	r20, r12
     244:	5d 21       	and	r21, r13
     246:	21 15       	cp	r18, r1
     248:	31 05       	cpc	r19, r1
     24a:	41 05       	cpc	r20, r1
     24c:	51 05       	cpc	r21, r1
     24e:	21 f0       	breq	.+8      	; 0x258 <_fpadd_parts+0x16e>
     250:	21 e0       	ldi	r18, 0x01	; 1
     252:	30 e0       	ldi	r19, 0x00	; 0
     254:	40 e0       	ldi	r20, 0x00	; 0
     256:	50 e0       	ldi	r21, 0x00	; 0
     258:	59 01       	movw	r10, r18
     25a:	6a 01       	movw	r12, r20
     25c:	a6 28       	or	r10, r6
     25e:	b7 28       	or	r11, r7
     260:	c8 28       	or	r12, r8
     262:	d9 28       	or	r13, r9
     264:	0b c0       	rjmp	.+22     	; 0x27c <_fpadd_parts+0x192>
     266:	82 15       	cp	r24, r2
     268:	93 05       	cpc	r25, r3
     26a:	2c f0       	brlt	.+10     	; 0x276 <_fpadd_parts+0x18c>
     26c:	1c 01       	movw	r2, r24
     26e:	aa 24       	eor	r10, r10
     270:	bb 24       	eor	r11, r11
     272:	65 01       	movw	r12, r10
     274:	03 c0       	rjmp	.+6      	; 0x27c <_fpadd_parts+0x192>
     276:	ee 24       	eor	r14, r14
     278:	ff 24       	eor	r15, r15
     27a:	87 01       	movw	r16, r14
     27c:	11 96       	adiw	r26, 0x01	; 1
     27e:	9c 91       	ld	r25, X
     280:	d2 01       	movw	r26, r4
     282:	11 96       	adiw	r26, 0x01	; 1
     284:	8c 91       	ld	r24, X
     286:	98 17       	cp	r25, r24
     288:	09 f4       	brne	.+2      	; 0x28c <_fpadd_parts+0x1a2>
     28a:	45 c0       	rjmp	.+138    	; 0x316 <_fpadd_parts+0x22c>
     28c:	99 23       	and	r25, r25
     28e:	39 f0       	breq	.+14     	; 0x29e <_fpadd_parts+0x1b4>
     290:	a8 01       	movw	r20, r16
     292:	97 01       	movw	r18, r14
     294:	2a 19       	sub	r18, r10
     296:	3b 09       	sbc	r19, r11
     298:	4c 09       	sbc	r20, r12
     29a:	5d 09       	sbc	r21, r13
     29c:	06 c0       	rjmp	.+12     	; 0x2aa <_fpadd_parts+0x1c0>
     29e:	a6 01       	movw	r20, r12
     2a0:	95 01       	movw	r18, r10
     2a2:	2e 19       	sub	r18, r14
     2a4:	3f 09       	sbc	r19, r15
     2a6:	40 0b       	sbc	r20, r16
     2a8:	51 0b       	sbc	r21, r17
     2aa:	57 fd       	sbrc	r21, 7
     2ac:	08 c0       	rjmp	.+16     	; 0x2be <_fpadd_parts+0x1d4>
     2ae:	11 82       	std	Z+1, r1	; 0x01
     2b0:	33 82       	std	Z+3, r3	; 0x03
     2b2:	22 82       	std	Z+2, r2	; 0x02
     2b4:	24 83       	std	Z+4, r18	; 0x04
     2b6:	35 83       	std	Z+5, r19	; 0x05
     2b8:	46 83       	std	Z+6, r20	; 0x06
     2ba:	57 83       	std	Z+7, r21	; 0x07
     2bc:	1d c0       	rjmp	.+58     	; 0x2f8 <_fpadd_parts+0x20e>
     2be:	81 e0       	ldi	r24, 0x01	; 1
     2c0:	81 83       	std	Z+1, r24	; 0x01
     2c2:	33 82       	std	Z+3, r3	; 0x03
     2c4:	22 82       	std	Z+2, r2	; 0x02
     2c6:	88 27       	eor	r24, r24
     2c8:	99 27       	eor	r25, r25
     2ca:	dc 01       	movw	r26, r24
     2cc:	82 1b       	sub	r24, r18
     2ce:	93 0b       	sbc	r25, r19
     2d0:	a4 0b       	sbc	r26, r20
     2d2:	b5 0b       	sbc	r27, r21
     2d4:	84 83       	std	Z+4, r24	; 0x04
     2d6:	95 83       	std	Z+5, r25	; 0x05
     2d8:	a6 83       	std	Z+6, r26	; 0x06
     2da:	b7 83       	std	Z+7, r27	; 0x07
     2dc:	0d c0       	rjmp	.+26     	; 0x2f8 <_fpadd_parts+0x20e>
     2de:	22 0f       	add	r18, r18
     2e0:	33 1f       	adc	r19, r19
     2e2:	44 1f       	adc	r20, r20
     2e4:	55 1f       	adc	r21, r21
     2e6:	24 83       	std	Z+4, r18	; 0x04
     2e8:	35 83       	std	Z+5, r19	; 0x05
     2ea:	46 83       	std	Z+6, r20	; 0x06
     2ec:	57 83       	std	Z+7, r21	; 0x07
     2ee:	82 81       	ldd	r24, Z+2	; 0x02
     2f0:	93 81       	ldd	r25, Z+3	; 0x03
     2f2:	01 97       	sbiw	r24, 0x01	; 1
     2f4:	93 83       	std	Z+3, r25	; 0x03
     2f6:	82 83       	std	Z+2, r24	; 0x02
     2f8:	24 81       	ldd	r18, Z+4	; 0x04
     2fa:	35 81       	ldd	r19, Z+5	; 0x05
     2fc:	46 81       	ldd	r20, Z+6	; 0x06
     2fe:	57 81       	ldd	r21, Z+7	; 0x07
     300:	da 01       	movw	r26, r20
     302:	c9 01       	movw	r24, r18
     304:	01 97       	sbiw	r24, 0x01	; 1
     306:	a1 09       	sbc	r26, r1
     308:	b1 09       	sbc	r27, r1
     30a:	8f 5f       	subi	r24, 0xFF	; 255
     30c:	9f 4f       	sbci	r25, 0xFF	; 255
     30e:	af 4f       	sbci	r26, 0xFF	; 255
     310:	bf 43       	sbci	r27, 0x3F	; 63
     312:	28 f3       	brcs	.-54     	; 0x2de <_fpadd_parts+0x1f4>
     314:	0b c0       	rjmp	.+22     	; 0x32c <_fpadd_parts+0x242>
     316:	91 83       	std	Z+1, r25	; 0x01
     318:	33 82       	std	Z+3, r3	; 0x03
     31a:	22 82       	std	Z+2, r2	; 0x02
     31c:	ea 0c       	add	r14, r10
     31e:	fb 1c       	adc	r15, r11
     320:	0c 1d       	adc	r16, r12
     322:	1d 1d       	adc	r17, r13
     324:	e4 82       	std	Z+4, r14	; 0x04
     326:	f5 82       	std	Z+5, r15	; 0x05
     328:	06 83       	std	Z+6, r16	; 0x06
     32a:	17 83       	std	Z+7, r17	; 0x07
     32c:	83 e0       	ldi	r24, 0x03	; 3
     32e:	80 83       	st	Z, r24
     330:	24 81       	ldd	r18, Z+4	; 0x04
     332:	35 81       	ldd	r19, Z+5	; 0x05
     334:	46 81       	ldd	r20, Z+6	; 0x06
     336:	57 81       	ldd	r21, Z+7	; 0x07
     338:	57 ff       	sbrs	r21, 7
     33a:	1a c0       	rjmp	.+52     	; 0x370 <_fpadd_parts+0x286>
     33c:	c9 01       	movw	r24, r18
     33e:	aa 27       	eor	r26, r26
     340:	97 fd       	sbrc	r25, 7
     342:	a0 95       	com	r26
     344:	ba 2f       	mov	r27, r26
     346:	81 70       	andi	r24, 0x01	; 1
     348:	90 70       	andi	r25, 0x00	; 0
     34a:	a0 70       	andi	r26, 0x00	; 0
     34c:	b0 70       	andi	r27, 0x00	; 0
     34e:	56 95       	lsr	r21
     350:	47 95       	ror	r20
     352:	37 95       	ror	r19
     354:	27 95       	ror	r18
     356:	82 2b       	or	r24, r18
     358:	93 2b       	or	r25, r19
     35a:	a4 2b       	or	r26, r20
     35c:	b5 2b       	or	r27, r21
     35e:	84 83       	std	Z+4, r24	; 0x04
     360:	95 83       	std	Z+5, r25	; 0x05
     362:	a6 83       	std	Z+6, r26	; 0x06
     364:	b7 83       	std	Z+7, r27	; 0x07
     366:	82 81       	ldd	r24, Z+2	; 0x02
     368:	93 81       	ldd	r25, Z+3	; 0x03
     36a:	01 96       	adiw	r24, 0x01	; 1
     36c:	93 83       	std	Z+3, r25	; 0x03
     36e:	82 83       	std	Z+2, r24	; 0x02
     370:	df 01       	movw	r26, r30
     372:	01 c0       	rjmp	.+2      	; 0x376 <_fpadd_parts+0x28c>
     374:	d2 01       	movw	r26, r4
     376:	cd 01       	movw	r24, r26
     378:	cd b7       	in	r28, 0x3d	; 61
     37a:	de b7       	in	r29, 0x3e	; 62
     37c:	e2 e1       	ldi	r30, 0x12	; 18
     37e:	0c 94 2e 12 	jmp	0x245c	; 0x245c <__epilogue_restores__>

00000382 <__subsf3>:
     382:	a0 e2       	ldi	r26, 0x20	; 32
     384:	b0 e0       	ldi	r27, 0x00	; 0
     386:	e7 ec       	ldi	r30, 0xC7	; 199
     388:	f1 e0       	ldi	r31, 0x01	; 1
     38a:	0c 94 1e 12 	jmp	0x243c	; 0x243c <__prologue_saves__+0x18>
     38e:	69 83       	std	Y+1, r22	; 0x01
     390:	7a 83       	std	Y+2, r23	; 0x02
     392:	8b 83       	std	Y+3, r24	; 0x03
     394:	9c 83       	std	Y+4, r25	; 0x04
     396:	2d 83       	std	Y+5, r18	; 0x05
     398:	3e 83       	std	Y+6, r19	; 0x06
     39a:	4f 83       	std	Y+7, r20	; 0x07
     39c:	58 87       	std	Y+8, r21	; 0x08
     39e:	e9 e0       	ldi	r30, 0x09	; 9
     3a0:	ee 2e       	mov	r14, r30
     3a2:	f1 2c       	mov	r15, r1
     3a4:	ec 0e       	add	r14, r28
     3a6:	fd 1e       	adc	r15, r29
     3a8:	ce 01       	movw	r24, r28
     3aa:	01 96       	adiw	r24, 0x01	; 1
     3ac:	b7 01       	movw	r22, r14
     3ae:	0e 94 e6 05 	call	0xbcc	; 0xbcc <__unpack_f>
     3b2:	8e 01       	movw	r16, r28
     3b4:	0f 5e       	subi	r16, 0xEF	; 239
     3b6:	1f 4f       	sbci	r17, 0xFF	; 255
     3b8:	ce 01       	movw	r24, r28
     3ba:	05 96       	adiw	r24, 0x05	; 5
     3bc:	b8 01       	movw	r22, r16
     3be:	0e 94 e6 05 	call	0xbcc	; 0xbcc <__unpack_f>
     3c2:	8a 89       	ldd	r24, Y+18	; 0x12
     3c4:	91 e0       	ldi	r25, 0x01	; 1
     3c6:	89 27       	eor	r24, r25
     3c8:	8a 8b       	std	Y+18, r24	; 0x12
     3ca:	c7 01       	movw	r24, r14
     3cc:	b8 01       	movw	r22, r16
     3ce:	ae 01       	movw	r20, r28
     3d0:	47 5e       	subi	r20, 0xE7	; 231
     3d2:	5f 4f       	sbci	r21, 0xFF	; 255
     3d4:	0e 94 75 00 	call	0xea	; 0xea <_fpadd_parts>
     3d8:	0e 94 11 05 	call	0xa22	; 0xa22 <__pack_f>
     3dc:	a0 96       	adiw	r28, 0x20	; 32
     3de:	e6 e0       	ldi	r30, 0x06	; 6
     3e0:	0c 94 3a 12 	jmp	0x2474	; 0x2474 <__epilogue_restores__+0x18>

000003e4 <__addsf3>:
     3e4:	a0 e2       	ldi	r26, 0x20	; 32
     3e6:	b0 e0       	ldi	r27, 0x00	; 0
     3e8:	e8 ef       	ldi	r30, 0xF8	; 248
     3ea:	f1 e0       	ldi	r31, 0x01	; 1
     3ec:	0c 94 1e 12 	jmp	0x243c	; 0x243c <__prologue_saves__+0x18>
     3f0:	69 83       	std	Y+1, r22	; 0x01
     3f2:	7a 83       	std	Y+2, r23	; 0x02
     3f4:	8b 83       	std	Y+3, r24	; 0x03
     3f6:	9c 83       	std	Y+4, r25	; 0x04
     3f8:	2d 83       	std	Y+5, r18	; 0x05
     3fa:	3e 83       	std	Y+6, r19	; 0x06
     3fc:	4f 83       	std	Y+7, r20	; 0x07
     3fe:	58 87       	std	Y+8, r21	; 0x08
     400:	f9 e0       	ldi	r31, 0x09	; 9
     402:	ef 2e       	mov	r14, r31
     404:	f1 2c       	mov	r15, r1
     406:	ec 0e       	add	r14, r28
     408:	fd 1e       	adc	r15, r29
     40a:	ce 01       	movw	r24, r28
     40c:	01 96       	adiw	r24, 0x01	; 1
     40e:	b7 01       	movw	r22, r14
     410:	0e 94 e6 05 	call	0xbcc	; 0xbcc <__unpack_f>
     414:	8e 01       	movw	r16, r28
     416:	0f 5e       	subi	r16, 0xEF	; 239
     418:	1f 4f       	sbci	r17, 0xFF	; 255
     41a:	ce 01       	movw	r24, r28
     41c:	05 96       	adiw	r24, 0x05	; 5
     41e:	b8 01       	movw	r22, r16
     420:	0e 94 e6 05 	call	0xbcc	; 0xbcc <__unpack_f>
     424:	c7 01       	movw	r24, r14
     426:	b8 01       	movw	r22, r16
     428:	ae 01       	movw	r20, r28
     42a:	47 5e       	subi	r20, 0xE7	; 231
     42c:	5f 4f       	sbci	r21, 0xFF	; 255
     42e:	0e 94 75 00 	call	0xea	; 0xea <_fpadd_parts>
     432:	0e 94 11 05 	call	0xa22	; 0xa22 <__pack_f>
     436:	a0 96       	adiw	r28, 0x20	; 32
     438:	e6 e0       	ldi	r30, 0x06	; 6
     43a:	0c 94 3a 12 	jmp	0x2474	; 0x2474 <__epilogue_restores__+0x18>

0000043e <__mulsf3>:
     43e:	a0 e2       	ldi	r26, 0x20	; 32
     440:	b0 e0       	ldi	r27, 0x00	; 0
     442:	e5 e2       	ldi	r30, 0x25	; 37
     444:	f2 e0       	ldi	r31, 0x02	; 2
     446:	0c 94 12 12 	jmp	0x2424	; 0x2424 <__prologue_saves__>
     44a:	69 83       	std	Y+1, r22	; 0x01
     44c:	7a 83       	std	Y+2, r23	; 0x02
     44e:	8b 83       	std	Y+3, r24	; 0x03
     450:	9c 83       	std	Y+4, r25	; 0x04
     452:	2d 83       	std	Y+5, r18	; 0x05
     454:	3e 83       	std	Y+6, r19	; 0x06
     456:	4f 83       	std	Y+7, r20	; 0x07
     458:	58 87       	std	Y+8, r21	; 0x08
     45a:	ce 01       	movw	r24, r28
     45c:	01 96       	adiw	r24, 0x01	; 1
     45e:	be 01       	movw	r22, r28
     460:	67 5f       	subi	r22, 0xF7	; 247
     462:	7f 4f       	sbci	r23, 0xFF	; 255
     464:	0e 94 e6 05 	call	0xbcc	; 0xbcc <__unpack_f>
     468:	ce 01       	movw	r24, r28
     46a:	05 96       	adiw	r24, 0x05	; 5
     46c:	be 01       	movw	r22, r28
     46e:	6f 5e       	subi	r22, 0xEF	; 239
     470:	7f 4f       	sbci	r23, 0xFF	; 255
     472:	0e 94 e6 05 	call	0xbcc	; 0xbcc <__unpack_f>
     476:	99 85       	ldd	r25, Y+9	; 0x09
     478:	92 30       	cpi	r25, 0x02	; 2
     47a:	88 f0       	brcs	.+34     	; 0x49e <__mulsf3+0x60>
     47c:	89 89       	ldd	r24, Y+17	; 0x11
     47e:	82 30       	cpi	r24, 0x02	; 2
     480:	c8 f0       	brcs	.+50     	; 0x4b4 <__mulsf3+0x76>
     482:	94 30       	cpi	r25, 0x04	; 4
     484:	19 f4       	brne	.+6      	; 0x48c <__mulsf3+0x4e>
     486:	82 30       	cpi	r24, 0x02	; 2
     488:	51 f4       	brne	.+20     	; 0x49e <__mulsf3+0x60>
     48a:	04 c0       	rjmp	.+8      	; 0x494 <__mulsf3+0x56>
     48c:	84 30       	cpi	r24, 0x04	; 4
     48e:	29 f4       	brne	.+10     	; 0x49a <__mulsf3+0x5c>
     490:	92 30       	cpi	r25, 0x02	; 2
     492:	81 f4       	brne	.+32     	; 0x4b4 <__mulsf3+0x76>
     494:	80 e6       	ldi	r24, 0x60	; 96
     496:	90 e0       	ldi	r25, 0x00	; 0
     498:	c6 c0       	rjmp	.+396    	; 0x626 <__mulsf3+0x1e8>
     49a:	92 30       	cpi	r25, 0x02	; 2
     49c:	49 f4       	brne	.+18     	; 0x4b0 <__mulsf3+0x72>
     49e:	20 e0       	ldi	r18, 0x00	; 0
     4a0:	9a 85       	ldd	r25, Y+10	; 0x0a
     4a2:	8a 89       	ldd	r24, Y+18	; 0x12
     4a4:	98 13       	cpse	r25, r24
     4a6:	21 e0       	ldi	r18, 0x01	; 1
     4a8:	2a 87       	std	Y+10, r18	; 0x0a
     4aa:	ce 01       	movw	r24, r28
     4ac:	09 96       	adiw	r24, 0x09	; 9
     4ae:	bb c0       	rjmp	.+374    	; 0x626 <__mulsf3+0x1e8>
     4b0:	82 30       	cpi	r24, 0x02	; 2
     4b2:	49 f4       	brne	.+18     	; 0x4c6 <__mulsf3+0x88>
     4b4:	20 e0       	ldi	r18, 0x00	; 0
     4b6:	9a 85       	ldd	r25, Y+10	; 0x0a
     4b8:	8a 89       	ldd	r24, Y+18	; 0x12
     4ba:	98 13       	cpse	r25, r24
     4bc:	21 e0       	ldi	r18, 0x01	; 1
     4be:	2a 8b       	std	Y+18, r18	; 0x12
     4c0:	ce 01       	movw	r24, r28
     4c2:	41 96       	adiw	r24, 0x11	; 17
     4c4:	b0 c0       	rjmp	.+352    	; 0x626 <__mulsf3+0x1e8>
     4c6:	2d 84       	ldd	r2, Y+13	; 0x0d
     4c8:	3e 84       	ldd	r3, Y+14	; 0x0e
     4ca:	4f 84       	ldd	r4, Y+15	; 0x0f
     4cc:	58 88       	ldd	r5, Y+16	; 0x10
     4ce:	6d 88       	ldd	r6, Y+21	; 0x15
     4d0:	7e 88       	ldd	r7, Y+22	; 0x16
     4d2:	8f 88       	ldd	r8, Y+23	; 0x17
     4d4:	98 8c       	ldd	r9, Y+24	; 0x18
     4d6:	ee 24       	eor	r14, r14
     4d8:	ff 24       	eor	r15, r15
     4da:	87 01       	movw	r16, r14
     4dc:	aa 24       	eor	r10, r10
     4de:	bb 24       	eor	r11, r11
     4e0:	65 01       	movw	r12, r10
     4e2:	40 e0       	ldi	r20, 0x00	; 0
     4e4:	50 e0       	ldi	r21, 0x00	; 0
     4e6:	60 e0       	ldi	r22, 0x00	; 0
     4e8:	70 e0       	ldi	r23, 0x00	; 0
     4ea:	e0 e0       	ldi	r30, 0x00	; 0
     4ec:	f0 e0       	ldi	r31, 0x00	; 0
     4ee:	c1 01       	movw	r24, r2
     4f0:	81 70       	andi	r24, 0x01	; 1
     4f2:	90 70       	andi	r25, 0x00	; 0
     4f4:	89 2b       	or	r24, r25
     4f6:	e9 f0       	breq	.+58     	; 0x532 <__mulsf3+0xf4>
     4f8:	e6 0c       	add	r14, r6
     4fa:	f7 1c       	adc	r15, r7
     4fc:	08 1d       	adc	r16, r8
     4fe:	19 1d       	adc	r17, r9
     500:	9a 01       	movw	r18, r20
     502:	ab 01       	movw	r20, r22
     504:	2a 0d       	add	r18, r10
     506:	3b 1d       	adc	r19, r11
     508:	4c 1d       	adc	r20, r12
     50a:	5d 1d       	adc	r21, r13
     50c:	80 e0       	ldi	r24, 0x00	; 0
     50e:	90 e0       	ldi	r25, 0x00	; 0
     510:	a0 e0       	ldi	r26, 0x00	; 0
     512:	b0 e0       	ldi	r27, 0x00	; 0
     514:	e6 14       	cp	r14, r6
     516:	f7 04       	cpc	r15, r7
     518:	08 05       	cpc	r16, r8
     51a:	19 05       	cpc	r17, r9
     51c:	20 f4       	brcc	.+8      	; 0x526 <__mulsf3+0xe8>
     51e:	81 e0       	ldi	r24, 0x01	; 1
     520:	90 e0       	ldi	r25, 0x00	; 0
     522:	a0 e0       	ldi	r26, 0x00	; 0
     524:	b0 e0       	ldi	r27, 0x00	; 0
     526:	ba 01       	movw	r22, r20
     528:	a9 01       	movw	r20, r18
     52a:	48 0f       	add	r20, r24
     52c:	59 1f       	adc	r21, r25
     52e:	6a 1f       	adc	r22, r26
     530:	7b 1f       	adc	r23, r27
     532:	aa 0c       	add	r10, r10
     534:	bb 1c       	adc	r11, r11
     536:	cc 1c       	adc	r12, r12
     538:	dd 1c       	adc	r13, r13
     53a:	97 fe       	sbrs	r9, 7
     53c:	08 c0       	rjmp	.+16     	; 0x54e <__mulsf3+0x110>
     53e:	81 e0       	ldi	r24, 0x01	; 1
     540:	90 e0       	ldi	r25, 0x00	; 0
     542:	a0 e0       	ldi	r26, 0x00	; 0
     544:	b0 e0       	ldi	r27, 0x00	; 0
     546:	a8 2a       	or	r10, r24
     548:	b9 2a       	or	r11, r25
     54a:	ca 2a       	or	r12, r26
     54c:	db 2a       	or	r13, r27
     54e:	31 96       	adiw	r30, 0x01	; 1
     550:	e0 32       	cpi	r30, 0x20	; 32
     552:	f1 05       	cpc	r31, r1
     554:	49 f0       	breq	.+18     	; 0x568 <__mulsf3+0x12a>
     556:	66 0c       	add	r6, r6
     558:	77 1c       	adc	r7, r7
     55a:	88 1c       	adc	r8, r8
     55c:	99 1c       	adc	r9, r9
     55e:	56 94       	lsr	r5
     560:	47 94       	ror	r4
     562:	37 94       	ror	r3
     564:	27 94       	ror	r2
     566:	c3 cf       	rjmp	.-122    	; 0x4ee <__mulsf3+0xb0>
     568:	fa 85       	ldd	r31, Y+10	; 0x0a
     56a:	ea 89       	ldd	r30, Y+18	; 0x12
     56c:	2b 89       	ldd	r18, Y+19	; 0x13
     56e:	3c 89       	ldd	r19, Y+20	; 0x14
     570:	8b 85       	ldd	r24, Y+11	; 0x0b
     572:	9c 85       	ldd	r25, Y+12	; 0x0c
     574:	28 0f       	add	r18, r24
     576:	39 1f       	adc	r19, r25
     578:	2e 5f       	subi	r18, 0xFE	; 254
     57a:	3f 4f       	sbci	r19, 0xFF	; 255
     57c:	17 c0       	rjmp	.+46     	; 0x5ac <__mulsf3+0x16e>
     57e:	ca 01       	movw	r24, r20
     580:	81 70       	andi	r24, 0x01	; 1
     582:	90 70       	andi	r25, 0x00	; 0
     584:	89 2b       	or	r24, r25
     586:	61 f0       	breq	.+24     	; 0x5a0 <__mulsf3+0x162>
     588:	16 95       	lsr	r17
     58a:	07 95       	ror	r16
     58c:	f7 94       	ror	r15
     58e:	e7 94       	ror	r14
     590:	80 e0       	ldi	r24, 0x00	; 0
     592:	90 e0       	ldi	r25, 0x00	; 0
     594:	a0 e0       	ldi	r26, 0x00	; 0
     596:	b0 e8       	ldi	r27, 0x80	; 128
     598:	e8 2a       	or	r14, r24
     59a:	f9 2a       	or	r15, r25
     59c:	0a 2b       	or	r16, r26
     59e:	1b 2b       	or	r17, r27
     5a0:	76 95       	lsr	r23
     5a2:	67 95       	ror	r22
     5a4:	57 95       	ror	r21
     5a6:	47 95       	ror	r20
     5a8:	2f 5f       	subi	r18, 0xFF	; 255
     5aa:	3f 4f       	sbci	r19, 0xFF	; 255
     5ac:	77 fd       	sbrc	r23, 7
     5ae:	e7 cf       	rjmp	.-50     	; 0x57e <__mulsf3+0x140>
     5b0:	0c c0       	rjmp	.+24     	; 0x5ca <__mulsf3+0x18c>
     5b2:	44 0f       	add	r20, r20
     5b4:	55 1f       	adc	r21, r21
     5b6:	66 1f       	adc	r22, r22
     5b8:	77 1f       	adc	r23, r23
     5ba:	17 fd       	sbrc	r17, 7
     5bc:	41 60       	ori	r20, 0x01	; 1
     5be:	ee 0c       	add	r14, r14
     5c0:	ff 1c       	adc	r15, r15
     5c2:	00 1f       	adc	r16, r16
     5c4:	11 1f       	adc	r17, r17
     5c6:	21 50       	subi	r18, 0x01	; 1
     5c8:	30 40       	sbci	r19, 0x00	; 0
     5ca:	40 30       	cpi	r20, 0x00	; 0
     5cc:	90 e0       	ldi	r25, 0x00	; 0
     5ce:	59 07       	cpc	r21, r25
     5d0:	90 e0       	ldi	r25, 0x00	; 0
     5d2:	69 07       	cpc	r22, r25
     5d4:	90 e4       	ldi	r25, 0x40	; 64
     5d6:	79 07       	cpc	r23, r25
     5d8:	60 f3       	brcs	.-40     	; 0x5b2 <__mulsf3+0x174>
     5da:	2b 8f       	std	Y+27, r18	; 0x1b
     5dc:	3c 8f       	std	Y+28, r19	; 0x1c
     5de:	db 01       	movw	r26, r22
     5e0:	ca 01       	movw	r24, r20
     5e2:	8f 77       	andi	r24, 0x7F	; 127
     5e4:	90 70       	andi	r25, 0x00	; 0
     5e6:	a0 70       	andi	r26, 0x00	; 0
     5e8:	b0 70       	andi	r27, 0x00	; 0
     5ea:	80 34       	cpi	r24, 0x40	; 64
     5ec:	91 05       	cpc	r25, r1
     5ee:	a1 05       	cpc	r26, r1
     5f0:	b1 05       	cpc	r27, r1
     5f2:	61 f4       	brne	.+24     	; 0x60c <__mulsf3+0x1ce>
     5f4:	47 fd       	sbrc	r20, 7
     5f6:	0a c0       	rjmp	.+20     	; 0x60c <__mulsf3+0x1ce>
     5f8:	e1 14       	cp	r14, r1
     5fa:	f1 04       	cpc	r15, r1
     5fc:	01 05       	cpc	r16, r1
     5fe:	11 05       	cpc	r17, r1
     600:	29 f0       	breq	.+10     	; 0x60c <__mulsf3+0x1ce>
     602:	40 5c       	subi	r20, 0xC0	; 192
     604:	5f 4f       	sbci	r21, 0xFF	; 255
     606:	6f 4f       	sbci	r22, 0xFF	; 255
     608:	7f 4f       	sbci	r23, 0xFF	; 255
     60a:	40 78       	andi	r20, 0x80	; 128
     60c:	1a 8e       	std	Y+26, r1	; 0x1a
     60e:	fe 17       	cp	r31, r30
     610:	11 f0       	breq	.+4      	; 0x616 <__mulsf3+0x1d8>
     612:	81 e0       	ldi	r24, 0x01	; 1
     614:	8a 8f       	std	Y+26, r24	; 0x1a
     616:	4d 8f       	std	Y+29, r20	; 0x1d
     618:	5e 8f       	std	Y+30, r21	; 0x1e
     61a:	6f 8f       	std	Y+31, r22	; 0x1f
     61c:	78 a3       	std	Y+32, r23	; 0x20
     61e:	83 e0       	ldi	r24, 0x03	; 3
     620:	89 8f       	std	Y+25, r24	; 0x19
     622:	ce 01       	movw	r24, r28
     624:	49 96       	adiw	r24, 0x19	; 25
     626:	0e 94 11 05 	call	0xa22	; 0xa22 <__pack_f>
     62a:	a0 96       	adiw	r28, 0x20	; 32
     62c:	e2 e1       	ldi	r30, 0x12	; 18
     62e:	0c 94 2e 12 	jmp	0x245c	; 0x245c <__epilogue_restores__>

00000632 <__divsf3>:
     632:	a8 e1       	ldi	r26, 0x18	; 24
     634:	b0 e0       	ldi	r27, 0x00	; 0
     636:	ef e1       	ldi	r30, 0x1F	; 31
     638:	f3 e0       	ldi	r31, 0x03	; 3
     63a:	0c 94 1a 12 	jmp	0x2434	; 0x2434 <__prologue_saves__+0x10>
     63e:	69 83       	std	Y+1, r22	; 0x01
     640:	7a 83       	std	Y+2, r23	; 0x02
     642:	8b 83       	std	Y+3, r24	; 0x03
     644:	9c 83       	std	Y+4, r25	; 0x04
     646:	2d 83       	std	Y+5, r18	; 0x05
     648:	3e 83       	std	Y+6, r19	; 0x06
     64a:	4f 83       	std	Y+7, r20	; 0x07
     64c:	58 87       	std	Y+8, r21	; 0x08
     64e:	b9 e0       	ldi	r27, 0x09	; 9
     650:	eb 2e       	mov	r14, r27
     652:	f1 2c       	mov	r15, r1
     654:	ec 0e       	add	r14, r28
     656:	fd 1e       	adc	r15, r29
     658:	ce 01       	movw	r24, r28
     65a:	01 96       	adiw	r24, 0x01	; 1
     65c:	b7 01       	movw	r22, r14
     65e:	0e 94 e6 05 	call	0xbcc	; 0xbcc <__unpack_f>
     662:	8e 01       	movw	r16, r28
     664:	0f 5e       	subi	r16, 0xEF	; 239
     666:	1f 4f       	sbci	r17, 0xFF	; 255
     668:	ce 01       	movw	r24, r28
     66a:	05 96       	adiw	r24, 0x05	; 5
     66c:	b8 01       	movw	r22, r16
     66e:	0e 94 e6 05 	call	0xbcc	; 0xbcc <__unpack_f>
     672:	29 85       	ldd	r18, Y+9	; 0x09
     674:	22 30       	cpi	r18, 0x02	; 2
     676:	08 f4       	brcc	.+2      	; 0x67a <__divsf3+0x48>
     678:	7e c0       	rjmp	.+252    	; 0x776 <__divsf3+0x144>
     67a:	39 89       	ldd	r19, Y+17	; 0x11
     67c:	32 30       	cpi	r19, 0x02	; 2
     67e:	10 f4       	brcc	.+4      	; 0x684 <__divsf3+0x52>
     680:	b8 01       	movw	r22, r16
     682:	7c c0       	rjmp	.+248    	; 0x77c <__divsf3+0x14a>
     684:	8a 85       	ldd	r24, Y+10	; 0x0a
     686:	9a 89       	ldd	r25, Y+18	; 0x12
     688:	89 27       	eor	r24, r25
     68a:	8a 87       	std	Y+10, r24	; 0x0a
     68c:	24 30       	cpi	r18, 0x04	; 4
     68e:	11 f0       	breq	.+4      	; 0x694 <__divsf3+0x62>
     690:	22 30       	cpi	r18, 0x02	; 2
     692:	31 f4       	brne	.+12     	; 0x6a0 <__divsf3+0x6e>
     694:	23 17       	cp	r18, r19
     696:	09 f0       	breq	.+2      	; 0x69a <__divsf3+0x68>
     698:	6e c0       	rjmp	.+220    	; 0x776 <__divsf3+0x144>
     69a:	60 e6       	ldi	r22, 0x60	; 96
     69c:	70 e0       	ldi	r23, 0x00	; 0
     69e:	6e c0       	rjmp	.+220    	; 0x77c <__divsf3+0x14a>
     6a0:	34 30       	cpi	r19, 0x04	; 4
     6a2:	39 f4       	brne	.+14     	; 0x6b2 <__divsf3+0x80>
     6a4:	1d 86       	std	Y+13, r1	; 0x0d
     6a6:	1e 86       	std	Y+14, r1	; 0x0e
     6a8:	1f 86       	std	Y+15, r1	; 0x0f
     6aa:	18 8a       	std	Y+16, r1	; 0x10
     6ac:	1c 86       	std	Y+12, r1	; 0x0c
     6ae:	1b 86       	std	Y+11, r1	; 0x0b
     6b0:	04 c0       	rjmp	.+8      	; 0x6ba <__divsf3+0x88>
     6b2:	32 30       	cpi	r19, 0x02	; 2
     6b4:	21 f4       	brne	.+8      	; 0x6be <__divsf3+0x8c>
     6b6:	84 e0       	ldi	r24, 0x04	; 4
     6b8:	89 87       	std	Y+9, r24	; 0x09
     6ba:	b7 01       	movw	r22, r14
     6bc:	5f c0       	rjmp	.+190    	; 0x77c <__divsf3+0x14a>
     6be:	2b 85       	ldd	r18, Y+11	; 0x0b
     6c0:	3c 85       	ldd	r19, Y+12	; 0x0c
     6c2:	8b 89       	ldd	r24, Y+19	; 0x13
     6c4:	9c 89       	ldd	r25, Y+20	; 0x14
     6c6:	28 1b       	sub	r18, r24
     6c8:	39 0b       	sbc	r19, r25
     6ca:	3c 87       	std	Y+12, r19	; 0x0c
     6cc:	2b 87       	std	Y+11, r18	; 0x0b
     6ce:	ed 84       	ldd	r14, Y+13	; 0x0d
     6d0:	fe 84       	ldd	r15, Y+14	; 0x0e
     6d2:	0f 85       	ldd	r16, Y+15	; 0x0f
     6d4:	18 89       	ldd	r17, Y+16	; 0x10
     6d6:	ad 88       	ldd	r10, Y+21	; 0x15
     6d8:	be 88       	ldd	r11, Y+22	; 0x16
     6da:	cf 88       	ldd	r12, Y+23	; 0x17
     6dc:	d8 8c       	ldd	r13, Y+24	; 0x18
     6de:	ea 14       	cp	r14, r10
     6e0:	fb 04       	cpc	r15, r11
     6e2:	0c 05       	cpc	r16, r12
     6e4:	1d 05       	cpc	r17, r13
     6e6:	40 f4       	brcc	.+16     	; 0x6f8 <__divsf3+0xc6>
     6e8:	ee 0c       	add	r14, r14
     6ea:	ff 1c       	adc	r15, r15
     6ec:	00 1f       	adc	r16, r16
     6ee:	11 1f       	adc	r17, r17
     6f0:	21 50       	subi	r18, 0x01	; 1
     6f2:	30 40       	sbci	r19, 0x00	; 0
     6f4:	3c 87       	std	Y+12, r19	; 0x0c
     6f6:	2b 87       	std	Y+11, r18	; 0x0b
     6f8:	20 e0       	ldi	r18, 0x00	; 0
     6fa:	30 e0       	ldi	r19, 0x00	; 0
     6fc:	40 e0       	ldi	r20, 0x00	; 0
     6fe:	50 e0       	ldi	r21, 0x00	; 0
     700:	80 e0       	ldi	r24, 0x00	; 0
     702:	90 e0       	ldi	r25, 0x00	; 0
     704:	a0 e0       	ldi	r26, 0x00	; 0
     706:	b0 e4       	ldi	r27, 0x40	; 64
     708:	60 e0       	ldi	r22, 0x00	; 0
     70a:	70 e0       	ldi	r23, 0x00	; 0
     70c:	ea 14       	cp	r14, r10
     70e:	fb 04       	cpc	r15, r11
     710:	0c 05       	cpc	r16, r12
     712:	1d 05       	cpc	r17, r13
     714:	40 f0       	brcs	.+16     	; 0x726 <__divsf3+0xf4>
     716:	28 2b       	or	r18, r24
     718:	39 2b       	or	r19, r25
     71a:	4a 2b       	or	r20, r26
     71c:	5b 2b       	or	r21, r27
     71e:	ea 18       	sub	r14, r10
     720:	fb 08       	sbc	r15, r11
     722:	0c 09       	sbc	r16, r12
     724:	1d 09       	sbc	r17, r13
     726:	b6 95       	lsr	r27
     728:	a7 95       	ror	r26
     72a:	97 95       	ror	r25
     72c:	87 95       	ror	r24
     72e:	ee 0c       	add	r14, r14
     730:	ff 1c       	adc	r15, r15
     732:	00 1f       	adc	r16, r16
     734:	11 1f       	adc	r17, r17
     736:	6f 5f       	subi	r22, 0xFF	; 255
     738:	7f 4f       	sbci	r23, 0xFF	; 255
     73a:	6f 31       	cpi	r22, 0x1F	; 31
     73c:	71 05       	cpc	r23, r1
     73e:	31 f7       	brne	.-52     	; 0x70c <__divsf3+0xda>
     740:	da 01       	movw	r26, r20
     742:	c9 01       	movw	r24, r18
     744:	8f 77       	andi	r24, 0x7F	; 127
     746:	90 70       	andi	r25, 0x00	; 0
     748:	a0 70       	andi	r26, 0x00	; 0
     74a:	b0 70       	andi	r27, 0x00	; 0
     74c:	80 34       	cpi	r24, 0x40	; 64
     74e:	91 05       	cpc	r25, r1
     750:	a1 05       	cpc	r26, r1
     752:	b1 05       	cpc	r27, r1
     754:	61 f4       	brne	.+24     	; 0x76e <__divsf3+0x13c>
     756:	27 fd       	sbrc	r18, 7
     758:	0a c0       	rjmp	.+20     	; 0x76e <__divsf3+0x13c>
     75a:	e1 14       	cp	r14, r1
     75c:	f1 04       	cpc	r15, r1
     75e:	01 05       	cpc	r16, r1
     760:	11 05       	cpc	r17, r1
     762:	29 f0       	breq	.+10     	; 0x76e <__divsf3+0x13c>
     764:	20 5c       	subi	r18, 0xC0	; 192
     766:	3f 4f       	sbci	r19, 0xFF	; 255
     768:	4f 4f       	sbci	r20, 0xFF	; 255
     76a:	5f 4f       	sbci	r21, 0xFF	; 255
     76c:	20 78       	andi	r18, 0x80	; 128
     76e:	2d 87       	std	Y+13, r18	; 0x0d
     770:	3e 87       	std	Y+14, r19	; 0x0e
     772:	4f 87       	std	Y+15, r20	; 0x0f
     774:	58 8b       	std	Y+16, r21	; 0x10
     776:	be 01       	movw	r22, r28
     778:	67 5f       	subi	r22, 0xF7	; 247
     77a:	7f 4f       	sbci	r23, 0xFF	; 255
     77c:	cb 01       	movw	r24, r22
     77e:	0e 94 11 05 	call	0xa22	; 0xa22 <__pack_f>
     782:	68 96       	adiw	r28, 0x18	; 24
     784:	ea e0       	ldi	r30, 0x0A	; 10
     786:	0c 94 36 12 	jmp	0x246c	; 0x246c <__epilogue_restores__+0x10>

0000078a <__gesf2>:
     78a:	a8 e1       	ldi	r26, 0x18	; 24
     78c:	b0 e0       	ldi	r27, 0x00	; 0
     78e:	eb ec       	ldi	r30, 0xCB	; 203
     790:	f3 e0       	ldi	r31, 0x03	; 3
     792:	0c 94 1e 12 	jmp	0x243c	; 0x243c <__prologue_saves__+0x18>
     796:	69 83       	std	Y+1, r22	; 0x01
     798:	7a 83       	std	Y+2, r23	; 0x02
     79a:	8b 83       	std	Y+3, r24	; 0x03
     79c:	9c 83       	std	Y+4, r25	; 0x04
     79e:	2d 83       	std	Y+5, r18	; 0x05
     7a0:	3e 83       	std	Y+6, r19	; 0x06
     7a2:	4f 83       	std	Y+7, r20	; 0x07
     7a4:	58 87       	std	Y+8, r21	; 0x08
     7a6:	89 e0       	ldi	r24, 0x09	; 9
     7a8:	e8 2e       	mov	r14, r24
     7aa:	f1 2c       	mov	r15, r1
     7ac:	ec 0e       	add	r14, r28
     7ae:	fd 1e       	adc	r15, r29
     7b0:	ce 01       	movw	r24, r28
     7b2:	01 96       	adiw	r24, 0x01	; 1
     7b4:	b7 01       	movw	r22, r14
     7b6:	0e 94 e6 05 	call	0xbcc	; 0xbcc <__unpack_f>
     7ba:	8e 01       	movw	r16, r28
     7bc:	0f 5e       	subi	r16, 0xEF	; 239
     7be:	1f 4f       	sbci	r17, 0xFF	; 255
     7c0:	ce 01       	movw	r24, r28
     7c2:	05 96       	adiw	r24, 0x05	; 5
     7c4:	b8 01       	movw	r22, r16
     7c6:	0e 94 e6 05 	call	0xbcc	; 0xbcc <__unpack_f>
     7ca:	89 85       	ldd	r24, Y+9	; 0x09
     7cc:	82 30       	cpi	r24, 0x02	; 2
     7ce:	40 f0       	brcs	.+16     	; 0x7e0 <__gesf2+0x56>
     7d0:	89 89       	ldd	r24, Y+17	; 0x11
     7d2:	82 30       	cpi	r24, 0x02	; 2
     7d4:	28 f0       	brcs	.+10     	; 0x7e0 <__gesf2+0x56>
     7d6:	c7 01       	movw	r24, r14
     7d8:	b8 01       	movw	r22, r16
     7da:	0e 94 5e 06 	call	0xcbc	; 0xcbc <__fpcmp_parts_f>
     7de:	01 c0       	rjmp	.+2      	; 0x7e2 <__gesf2+0x58>
     7e0:	8f ef       	ldi	r24, 0xFF	; 255
     7e2:	68 96       	adiw	r28, 0x18	; 24
     7e4:	e6 e0       	ldi	r30, 0x06	; 6
     7e6:	0c 94 3a 12 	jmp	0x2474	; 0x2474 <__epilogue_restores__+0x18>

000007ea <__fixsfsi>:
     7ea:	ac e0       	ldi	r26, 0x0C	; 12
     7ec:	b0 e0       	ldi	r27, 0x00	; 0
     7ee:	eb ef       	ldi	r30, 0xFB	; 251
     7f0:	f3 e0       	ldi	r31, 0x03	; 3
     7f2:	0c 94 22 12 	jmp	0x2444	; 0x2444 <__prologue_saves__+0x20>
     7f6:	69 83       	std	Y+1, r22	; 0x01
     7f8:	7a 83       	std	Y+2, r23	; 0x02
     7fa:	8b 83       	std	Y+3, r24	; 0x03
     7fc:	9c 83       	std	Y+4, r25	; 0x04
     7fe:	ce 01       	movw	r24, r28
     800:	01 96       	adiw	r24, 0x01	; 1
     802:	be 01       	movw	r22, r28
     804:	6b 5f       	subi	r22, 0xFB	; 251
     806:	7f 4f       	sbci	r23, 0xFF	; 255
     808:	0e 94 e6 05 	call	0xbcc	; 0xbcc <__unpack_f>
     80c:	8d 81       	ldd	r24, Y+5	; 0x05
     80e:	82 30       	cpi	r24, 0x02	; 2
     810:	61 f1       	breq	.+88     	; 0x86a <__stack+0xb>
     812:	82 30       	cpi	r24, 0x02	; 2
     814:	50 f1       	brcs	.+84     	; 0x86a <__stack+0xb>
     816:	84 30       	cpi	r24, 0x04	; 4
     818:	21 f4       	brne	.+8      	; 0x822 <__fixsfsi+0x38>
     81a:	8e 81       	ldd	r24, Y+6	; 0x06
     81c:	88 23       	and	r24, r24
     81e:	51 f1       	breq	.+84     	; 0x874 <__stack+0x15>
     820:	2e c0       	rjmp	.+92     	; 0x87e <__stack+0x1f>
     822:	2f 81       	ldd	r18, Y+7	; 0x07
     824:	38 85       	ldd	r19, Y+8	; 0x08
     826:	37 fd       	sbrc	r19, 7
     828:	20 c0       	rjmp	.+64     	; 0x86a <__stack+0xb>
     82a:	6e 81       	ldd	r22, Y+6	; 0x06
     82c:	2f 31       	cpi	r18, 0x1F	; 31
     82e:	31 05       	cpc	r19, r1
     830:	1c f0       	brlt	.+6      	; 0x838 <__fixsfsi+0x4e>
     832:	66 23       	and	r22, r22
     834:	f9 f0       	breq	.+62     	; 0x874 <__stack+0x15>
     836:	23 c0       	rjmp	.+70     	; 0x87e <__stack+0x1f>
     838:	8e e1       	ldi	r24, 0x1E	; 30
     83a:	90 e0       	ldi	r25, 0x00	; 0
     83c:	82 1b       	sub	r24, r18
     83e:	93 0b       	sbc	r25, r19
     840:	29 85       	ldd	r18, Y+9	; 0x09
     842:	3a 85       	ldd	r19, Y+10	; 0x0a
     844:	4b 85       	ldd	r20, Y+11	; 0x0b
     846:	5c 85       	ldd	r21, Y+12	; 0x0c
     848:	04 c0       	rjmp	.+8      	; 0x852 <__fixsfsi+0x68>
     84a:	56 95       	lsr	r21
     84c:	47 95       	ror	r20
     84e:	37 95       	ror	r19
     850:	27 95       	ror	r18
     852:	8a 95       	dec	r24
     854:	d2 f7       	brpl	.-12     	; 0x84a <__fixsfsi+0x60>
     856:	66 23       	and	r22, r22
     858:	b1 f0       	breq	.+44     	; 0x886 <__stack+0x27>
     85a:	50 95       	com	r21
     85c:	40 95       	com	r20
     85e:	30 95       	com	r19
     860:	21 95       	neg	r18
     862:	3f 4f       	sbci	r19, 0xFF	; 255
     864:	4f 4f       	sbci	r20, 0xFF	; 255
     866:	5f 4f       	sbci	r21, 0xFF	; 255
     868:	0e c0       	rjmp	.+28     	; 0x886 <__stack+0x27>
     86a:	20 e0       	ldi	r18, 0x00	; 0
     86c:	30 e0       	ldi	r19, 0x00	; 0
     86e:	40 e0       	ldi	r20, 0x00	; 0
     870:	50 e0       	ldi	r21, 0x00	; 0
     872:	09 c0       	rjmp	.+18     	; 0x886 <__stack+0x27>
     874:	2f ef       	ldi	r18, 0xFF	; 255
     876:	3f ef       	ldi	r19, 0xFF	; 255
     878:	4f ef       	ldi	r20, 0xFF	; 255
     87a:	5f e7       	ldi	r21, 0x7F	; 127
     87c:	04 c0       	rjmp	.+8      	; 0x886 <__stack+0x27>
     87e:	20 e0       	ldi	r18, 0x00	; 0
     880:	30 e0       	ldi	r19, 0x00	; 0
     882:	40 e0       	ldi	r20, 0x00	; 0
     884:	50 e8       	ldi	r21, 0x80	; 128
     886:	b9 01       	movw	r22, r18
     888:	ca 01       	movw	r24, r20
     88a:	2c 96       	adiw	r28, 0x0c	; 12
     88c:	e2 e0       	ldi	r30, 0x02	; 2
     88e:	0c 94 3e 12 	jmp	0x247c	; 0x247c <__epilogue_restores__+0x20>

00000892 <__floatunsisf>:
     892:	a8 e0       	ldi	r26, 0x08	; 8
     894:	b0 e0       	ldi	r27, 0x00	; 0
     896:	ef e4       	ldi	r30, 0x4F	; 79
     898:	f4 e0       	ldi	r31, 0x04	; 4
     89a:	0c 94 1a 12 	jmp	0x2434	; 0x2434 <__prologue_saves__+0x10>
     89e:	7b 01       	movw	r14, r22
     8a0:	8c 01       	movw	r16, r24
     8a2:	61 15       	cp	r22, r1
     8a4:	71 05       	cpc	r23, r1
     8a6:	81 05       	cpc	r24, r1
     8a8:	91 05       	cpc	r25, r1
     8aa:	19 f4       	brne	.+6      	; 0x8b2 <__floatunsisf+0x20>
     8ac:	82 e0       	ldi	r24, 0x02	; 2
     8ae:	89 83       	std	Y+1, r24	; 0x01
     8b0:	60 c0       	rjmp	.+192    	; 0x972 <__floatunsisf+0xe0>
     8b2:	83 e0       	ldi	r24, 0x03	; 3
     8b4:	89 83       	std	Y+1, r24	; 0x01
     8b6:	8e e1       	ldi	r24, 0x1E	; 30
     8b8:	c8 2e       	mov	r12, r24
     8ba:	d1 2c       	mov	r13, r1
     8bc:	dc 82       	std	Y+4, r13	; 0x04
     8be:	cb 82       	std	Y+3, r12	; 0x03
     8c0:	ed 82       	std	Y+5, r14	; 0x05
     8c2:	fe 82       	std	Y+6, r15	; 0x06
     8c4:	0f 83       	std	Y+7, r16	; 0x07
     8c6:	18 87       	std	Y+8, r17	; 0x08
     8c8:	c8 01       	movw	r24, r16
     8ca:	b7 01       	movw	r22, r14
     8cc:	0e 94 c2 04 	call	0x984	; 0x984 <__clzsi2>
     8d0:	fc 01       	movw	r30, r24
     8d2:	31 97       	sbiw	r30, 0x01	; 1
     8d4:	f7 ff       	sbrs	r31, 7
     8d6:	3b c0       	rjmp	.+118    	; 0x94e <__floatunsisf+0xbc>
     8d8:	22 27       	eor	r18, r18
     8da:	33 27       	eor	r19, r19
     8dc:	2e 1b       	sub	r18, r30
     8de:	3f 0b       	sbc	r19, r31
     8e0:	57 01       	movw	r10, r14
     8e2:	68 01       	movw	r12, r16
     8e4:	02 2e       	mov	r0, r18
     8e6:	04 c0       	rjmp	.+8      	; 0x8f0 <__floatunsisf+0x5e>
     8e8:	d6 94       	lsr	r13
     8ea:	c7 94       	ror	r12
     8ec:	b7 94       	ror	r11
     8ee:	a7 94       	ror	r10
     8f0:	0a 94       	dec	r0
     8f2:	d2 f7       	brpl	.-12     	; 0x8e8 <__floatunsisf+0x56>
     8f4:	40 e0       	ldi	r20, 0x00	; 0
     8f6:	50 e0       	ldi	r21, 0x00	; 0
     8f8:	60 e0       	ldi	r22, 0x00	; 0
     8fa:	70 e0       	ldi	r23, 0x00	; 0
     8fc:	81 e0       	ldi	r24, 0x01	; 1
     8fe:	90 e0       	ldi	r25, 0x00	; 0
     900:	a0 e0       	ldi	r26, 0x00	; 0
     902:	b0 e0       	ldi	r27, 0x00	; 0
     904:	04 c0       	rjmp	.+8      	; 0x90e <__floatunsisf+0x7c>
     906:	88 0f       	add	r24, r24
     908:	99 1f       	adc	r25, r25
     90a:	aa 1f       	adc	r26, r26
     90c:	bb 1f       	adc	r27, r27
     90e:	2a 95       	dec	r18
     910:	d2 f7       	brpl	.-12     	; 0x906 <__floatunsisf+0x74>
     912:	01 97       	sbiw	r24, 0x01	; 1
     914:	a1 09       	sbc	r26, r1
     916:	b1 09       	sbc	r27, r1
     918:	8e 21       	and	r24, r14
     91a:	9f 21       	and	r25, r15
     91c:	a0 23       	and	r26, r16
     91e:	b1 23       	and	r27, r17
     920:	00 97       	sbiw	r24, 0x00	; 0
     922:	a1 05       	cpc	r26, r1
     924:	b1 05       	cpc	r27, r1
     926:	21 f0       	breq	.+8      	; 0x930 <__floatunsisf+0x9e>
     928:	41 e0       	ldi	r20, 0x01	; 1
     92a:	50 e0       	ldi	r21, 0x00	; 0
     92c:	60 e0       	ldi	r22, 0x00	; 0
     92e:	70 e0       	ldi	r23, 0x00	; 0
     930:	4a 29       	or	r20, r10
     932:	5b 29       	or	r21, r11
     934:	6c 29       	or	r22, r12
     936:	7d 29       	or	r23, r13
     938:	4d 83       	std	Y+5, r20	; 0x05
     93a:	5e 83       	std	Y+6, r21	; 0x06
     93c:	6f 83       	std	Y+7, r22	; 0x07
     93e:	78 87       	std	Y+8, r23	; 0x08
     940:	8e e1       	ldi	r24, 0x1E	; 30
     942:	90 e0       	ldi	r25, 0x00	; 0
     944:	8e 1b       	sub	r24, r30
     946:	9f 0b       	sbc	r25, r31
     948:	9c 83       	std	Y+4, r25	; 0x04
     94a:	8b 83       	std	Y+3, r24	; 0x03
     94c:	12 c0       	rjmp	.+36     	; 0x972 <__floatunsisf+0xe0>
     94e:	30 97       	sbiw	r30, 0x00	; 0
     950:	81 f0       	breq	.+32     	; 0x972 <__floatunsisf+0xe0>
     952:	0e 2e       	mov	r0, r30
     954:	04 c0       	rjmp	.+8      	; 0x95e <__floatunsisf+0xcc>
     956:	ee 0c       	add	r14, r14
     958:	ff 1c       	adc	r15, r15
     95a:	00 1f       	adc	r16, r16
     95c:	11 1f       	adc	r17, r17
     95e:	0a 94       	dec	r0
     960:	d2 f7       	brpl	.-12     	; 0x956 <__floatunsisf+0xc4>
     962:	ed 82       	std	Y+5, r14	; 0x05
     964:	fe 82       	std	Y+6, r15	; 0x06
     966:	0f 83       	std	Y+7, r16	; 0x07
     968:	18 87       	std	Y+8, r17	; 0x08
     96a:	ce 1a       	sub	r12, r30
     96c:	df 0a       	sbc	r13, r31
     96e:	dc 82       	std	Y+4, r13	; 0x04
     970:	cb 82       	std	Y+3, r12	; 0x03
     972:	1a 82       	std	Y+2, r1	; 0x02
     974:	ce 01       	movw	r24, r28
     976:	01 96       	adiw	r24, 0x01	; 1
     978:	0e 94 11 05 	call	0xa22	; 0xa22 <__pack_f>
     97c:	28 96       	adiw	r28, 0x08	; 8
     97e:	ea e0       	ldi	r30, 0x0A	; 10
     980:	0c 94 36 12 	jmp	0x246c	; 0x246c <__epilogue_restores__+0x10>

00000984 <__clzsi2>:
     984:	ef 92       	push	r14
     986:	ff 92       	push	r15
     988:	0f 93       	push	r16
     98a:	1f 93       	push	r17
     98c:	7b 01       	movw	r14, r22
     98e:	8c 01       	movw	r16, r24
     990:	80 e0       	ldi	r24, 0x00	; 0
     992:	e8 16       	cp	r14, r24
     994:	80 e0       	ldi	r24, 0x00	; 0
     996:	f8 06       	cpc	r15, r24
     998:	81 e0       	ldi	r24, 0x01	; 1
     99a:	08 07       	cpc	r16, r24
     99c:	80 e0       	ldi	r24, 0x00	; 0
     99e:	18 07       	cpc	r17, r24
     9a0:	88 f4       	brcc	.+34     	; 0x9c4 <__clzsi2+0x40>
     9a2:	8f ef       	ldi	r24, 0xFF	; 255
     9a4:	e8 16       	cp	r14, r24
     9a6:	f1 04       	cpc	r15, r1
     9a8:	01 05       	cpc	r16, r1
     9aa:	11 05       	cpc	r17, r1
     9ac:	31 f0       	breq	.+12     	; 0x9ba <__clzsi2+0x36>
     9ae:	28 f0       	brcs	.+10     	; 0x9ba <__clzsi2+0x36>
     9b0:	88 e0       	ldi	r24, 0x08	; 8
     9b2:	90 e0       	ldi	r25, 0x00	; 0
     9b4:	a0 e0       	ldi	r26, 0x00	; 0
     9b6:	b0 e0       	ldi	r27, 0x00	; 0
     9b8:	17 c0       	rjmp	.+46     	; 0x9e8 <__clzsi2+0x64>
     9ba:	80 e0       	ldi	r24, 0x00	; 0
     9bc:	90 e0       	ldi	r25, 0x00	; 0
     9be:	a0 e0       	ldi	r26, 0x00	; 0
     9c0:	b0 e0       	ldi	r27, 0x00	; 0
     9c2:	12 c0       	rjmp	.+36     	; 0x9e8 <__clzsi2+0x64>
     9c4:	80 e0       	ldi	r24, 0x00	; 0
     9c6:	e8 16       	cp	r14, r24
     9c8:	80 e0       	ldi	r24, 0x00	; 0
     9ca:	f8 06       	cpc	r15, r24
     9cc:	80 e0       	ldi	r24, 0x00	; 0
     9ce:	08 07       	cpc	r16, r24
     9d0:	81 e0       	ldi	r24, 0x01	; 1
     9d2:	18 07       	cpc	r17, r24
     9d4:	28 f0       	brcs	.+10     	; 0x9e0 <__clzsi2+0x5c>
     9d6:	88 e1       	ldi	r24, 0x18	; 24
     9d8:	90 e0       	ldi	r25, 0x00	; 0
     9da:	a0 e0       	ldi	r26, 0x00	; 0
     9dc:	b0 e0       	ldi	r27, 0x00	; 0
     9de:	04 c0       	rjmp	.+8      	; 0x9e8 <__clzsi2+0x64>
     9e0:	80 e1       	ldi	r24, 0x10	; 16
     9e2:	90 e0       	ldi	r25, 0x00	; 0
     9e4:	a0 e0       	ldi	r26, 0x00	; 0
     9e6:	b0 e0       	ldi	r27, 0x00	; 0
     9e8:	20 e2       	ldi	r18, 0x20	; 32
     9ea:	30 e0       	ldi	r19, 0x00	; 0
     9ec:	40 e0       	ldi	r20, 0x00	; 0
     9ee:	50 e0       	ldi	r21, 0x00	; 0
     9f0:	28 1b       	sub	r18, r24
     9f2:	39 0b       	sbc	r19, r25
     9f4:	4a 0b       	sbc	r20, r26
     9f6:	5b 0b       	sbc	r21, r27
     9f8:	04 c0       	rjmp	.+8      	; 0xa02 <__clzsi2+0x7e>
     9fa:	16 95       	lsr	r17
     9fc:	07 95       	ror	r16
     9fe:	f7 94       	ror	r15
     a00:	e7 94       	ror	r14
     a02:	8a 95       	dec	r24
     a04:	d2 f7       	brpl	.-12     	; 0x9fa <__clzsi2+0x76>
     a06:	f7 01       	movw	r30, r14
     a08:	e8 59       	subi	r30, 0x98	; 152
     a0a:	ff 4f       	sbci	r31, 0xFF	; 255
     a0c:	80 81       	ld	r24, Z
     a0e:	28 1b       	sub	r18, r24
     a10:	31 09       	sbc	r19, r1
     a12:	41 09       	sbc	r20, r1
     a14:	51 09       	sbc	r21, r1
     a16:	c9 01       	movw	r24, r18
     a18:	1f 91       	pop	r17
     a1a:	0f 91       	pop	r16
     a1c:	ff 90       	pop	r15
     a1e:	ef 90       	pop	r14
     a20:	08 95       	ret

00000a22 <__pack_f>:
     a22:	df 92       	push	r13
     a24:	ef 92       	push	r14
     a26:	ff 92       	push	r15
     a28:	0f 93       	push	r16
     a2a:	1f 93       	push	r17
     a2c:	fc 01       	movw	r30, r24
     a2e:	e4 80       	ldd	r14, Z+4	; 0x04
     a30:	f5 80       	ldd	r15, Z+5	; 0x05
     a32:	06 81       	ldd	r16, Z+6	; 0x06
     a34:	17 81       	ldd	r17, Z+7	; 0x07
     a36:	d1 80       	ldd	r13, Z+1	; 0x01
     a38:	80 81       	ld	r24, Z
     a3a:	82 30       	cpi	r24, 0x02	; 2
     a3c:	48 f4       	brcc	.+18     	; 0xa50 <__pack_f+0x2e>
     a3e:	80 e0       	ldi	r24, 0x00	; 0
     a40:	90 e0       	ldi	r25, 0x00	; 0
     a42:	a0 e1       	ldi	r26, 0x10	; 16
     a44:	b0 e0       	ldi	r27, 0x00	; 0
     a46:	e8 2a       	or	r14, r24
     a48:	f9 2a       	or	r15, r25
     a4a:	0a 2b       	or	r16, r26
     a4c:	1b 2b       	or	r17, r27
     a4e:	a5 c0       	rjmp	.+330    	; 0xb9a <__pack_f+0x178>
     a50:	84 30       	cpi	r24, 0x04	; 4
     a52:	09 f4       	brne	.+2      	; 0xa56 <__pack_f+0x34>
     a54:	9f c0       	rjmp	.+318    	; 0xb94 <__pack_f+0x172>
     a56:	82 30       	cpi	r24, 0x02	; 2
     a58:	21 f4       	brne	.+8      	; 0xa62 <__pack_f+0x40>
     a5a:	ee 24       	eor	r14, r14
     a5c:	ff 24       	eor	r15, r15
     a5e:	87 01       	movw	r16, r14
     a60:	05 c0       	rjmp	.+10     	; 0xa6c <__pack_f+0x4a>
     a62:	e1 14       	cp	r14, r1
     a64:	f1 04       	cpc	r15, r1
     a66:	01 05       	cpc	r16, r1
     a68:	11 05       	cpc	r17, r1
     a6a:	19 f4       	brne	.+6      	; 0xa72 <__pack_f+0x50>
     a6c:	e0 e0       	ldi	r30, 0x00	; 0
     a6e:	f0 e0       	ldi	r31, 0x00	; 0
     a70:	96 c0       	rjmp	.+300    	; 0xb9e <__pack_f+0x17c>
     a72:	62 81       	ldd	r22, Z+2	; 0x02
     a74:	73 81       	ldd	r23, Z+3	; 0x03
     a76:	9f ef       	ldi	r25, 0xFF	; 255
     a78:	62 38       	cpi	r22, 0x82	; 130
     a7a:	79 07       	cpc	r23, r25
     a7c:	0c f0       	brlt	.+2      	; 0xa80 <__pack_f+0x5e>
     a7e:	5b c0       	rjmp	.+182    	; 0xb36 <__pack_f+0x114>
     a80:	22 e8       	ldi	r18, 0x82	; 130
     a82:	3f ef       	ldi	r19, 0xFF	; 255
     a84:	26 1b       	sub	r18, r22
     a86:	37 0b       	sbc	r19, r23
     a88:	2a 31       	cpi	r18, 0x1A	; 26
     a8a:	31 05       	cpc	r19, r1
     a8c:	2c f0       	brlt	.+10     	; 0xa98 <__pack_f+0x76>
     a8e:	20 e0       	ldi	r18, 0x00	; 0
     a90:	30 e0       	ldi	r19, 0x00	; 0
     a92:	40 e0       	ldi	r20, 0x00	; 0
     a94:	50 e0       	ldi	r21, 0x00	; 0
     a96:	2a c0       	rjmp	.+84     	; 0xaec <__pack_f+0xca>
     a98:	b8 01       	movw	r22, r16
     a9a:	a7 01       	movw	r20, r14
     a9c:	02 2e       	mov	r0, r18
     a9e:	04 c0       	rjmp	.+8      	; 0xaa8 <__pack_f+0x86>
     aa0:	76 95       	lsr	r23
     aa2:	67 95       	ror	r22
     aa4:	57 95       	ror	r21
     aa6:	47 95       	ror	r20
     aa8:	0a 94       	dec	r0
     aaa:	d2 f7       	brpl	.-12     	; 0xaa0 <__pack_f+0x7e>
     aac:	81 e0       	ldi	r24, 0x01	; 1
     aae:	90 e0       	ldi	r25, 0x00	; 0
     ab0:	a0 e0       	ldi	r26, 0x00	; 0
     ab2:	b0 e0       	ldi	r27, 0x00	; 0
     ab4:	04 c0       	rjmp	.+8      	; 0xabe <__pack_f+0x9c>
     ab6:	88 0f       	add	r24, r24
     ab8:	99 1f       	adc	r25, r25
     aba:	aa 1f       	adc	r26, r26
     abc:	bb 1f       	adc	r27, r27
     abe:	2a 95       	dec	r18
     ac0:	d2 f7       	brpl	.-12     	; 0xab6 <__pack_f+0x94>
     ac2:	01 97       	sbiw	r24, 0x01	; 1
     ac4:	a1 09       	sbc	r26, r1
     ac6:	b1 09       	sbc	r27, r1
     ac8:	8e 21       	and	r24, r14
     aca:	9f 21       	and	r25, r15
     acc:	a0 23       	and	r26, r16
     ace:	b1 23       	and	r27, r17
     ad0:	00 97       	sbiw	r24, 0x00	; 0
     ad2:	a1 05       	cpc	r26, r1
     ad4:	b1 05       	cpc	r27, r1
     ad6:	21 f0       	breq	.+8      	; 0xae0 <__pack_f+0xbe>
     ad8:	81 e0       	ldi	r24, 0x01	; 1
     ada:	90 e0       	ldi	r25, 0x00	; 0
     adc:	a0 e0       	ldi	r26, 0x00	; 0
     ade:	b0 e0       	ldi	r27, 0x00	; 0
     ae0:	9a 01       	movw	r18, r20
     ae2:	ab 01       	movw	r20, r22
     ae4:	28 2b       	or	r18, r24
     ae6:	39 2b       	or	r19, r25
     ae8:	4a 2b       	or	r20, r26
     aea:	5b 2b       	or	r21, r27
     aec:	da 01       	movw	r26, r20
     aee:	c9 01       	movw	r24, r18
     af0:	8f 77       	andi	r24, 0x7F	; 127
     af2:	90 70       	andi	r25, 0x00	; 0
     af4:	a0 70       	andi	r26, 0x00	; 0
     af6:	b0 70       	andi	r27, 0x00	; 0
     af8:	80 34       	cpi	r24, 0x40	; 64
     afa:	91 05       	cpc	r25, r1
     afc:	a1 05       	cpc	r26, r1
     afe:	b1 05       	cpc	r27, r1
     b00:	39 f4       	brne	.+14     	; 0xb10 <__pack_f+0xee>
     b02:	27 ff       	sbrs	r18, 7
     b04:	09 c0       	rjmp	.+18     	; 0xb18 <__pack_f+0xf6>
     b06:	20 5c       	subi	r18, 0xC0	; 192
     b08:	3f 4f       	sbci	r19, 0xFF	; 255
     b0a:	4f 4f       	sbci	r20, 0xFF	; 255
     b0c:	5f 4f       	sbci	r21, 0xFF	; 255
     b0e:	04 c0       	rjmp	.+8      	; 0xb18 <__pack_f+0xf6>
     b10:	21 5c       	subi	r18, 0xC1	; 193
     b12:	3f 4f       	sbci	r19, 0xFF	; 255
     b14:	4f 4f       	sbci	r20, 0xFF	; 255
     b16:	5f 4f       	sbci	r21, 0xFF	; 255
     b18:	e0 e0       	ldi	r30, 0x00	; 0
     b1a:	f0 e0       	ldi	r31, 0x00	; 0
     b1c:	20 30       	cpi	r18, 0x00	; 0
     b1e:	a0 e0       	ldi	r26, 0x00	; 0
     b20:	3a 07       	cpc	r19, r26
     b22:	a0 e0       	ldi	r26, 0x00	; 0
     b24:	4a 07       	cpc	r20, r26
     b26:	a0 e4       	ldi	r26, 0x40	; 64
     b28:	5a 07       	cpc	r21, r26
     b2a:	10 f0       	brcs	.+4      	; 0xb30 <__pack_f+0x10e>
     b2c:	e1 e0       	ldi	r30, 0x01	; 1
     b2e:	f0 e0       	ldi	r31, 0x00	; 0
     b30:	79 01       	movw	r14, r18
     b32:	8a 01       	movw	r16, r20
     b34:	27 c0       	rjmp	.+78     	; 0xb84 <__pack_f+0x162>
     b36:	60 38       	cpi	r22, 0x80	; 128
     b38:	71 05       	cpc	r23, r1
     b3a:	64 f5       	brge	.+88     	; 0xb94 <__pack_f+0x172>
     b3c:	fb 01       	movw	r30, r22
     b3e:	e1 58       	subi	r30, 0x81	; 129
     b40:	ff 4f       	sbci	r31, 0xFF	; 255
     b42:	d8 01       	movw	r26, r16
     b44:	c7 01       	movw	r24, r14
     b46:	8f 77       	andi	r24, 0x7F	; 127
     b48:	90 70       	andi	r25, 0x00	; 0
     b4a:	a0 70       	andi	r26, 0x00	; 0
     b4c:	b0 70       	andi	r27, 0x00	; 0
     b4e:	80 34       	cpi	r24, 0x40	; 64
     b50:	91 05       	cpc	r25, r1
     b52:	a1 05       	cpc	r26, r1
     b54:	b1 05       	cpc	r27, r1
     b56:	39 f4       	brne	.+14     	; 0xb66 <__pack_f+0x144>
     b58:	e7 fe       	sbrs	r14, 7
     b5a:	0d c0       	rjmp	.+26     	; 0xb76 <__pack_f+0x154>
     b5c:	80 e4       	ldi	r24, 0x40	; 64
     b5e:	90 e0       	ldi	r25, 0x00	; 0
     b60:	a0 e0       	ldi	r26, 0x00	; 0
     b62:	b0 e0       	ldi	r27, 0x00	; 0
     b64:	04 c0       	rjmp	.+8      	; 0xb6e <__pack_f+0x14c>
     b66:	8f e3       	ldi	r24, 0x3F	; 63
     b68:	90 e0       	ldi	r25, 0x00	; 0
     b6a:	a0 e0       	ldi	r26, 0x00	; 0
     b6c:	b0 e0       	ldi	r27, 0x00	; 0
     b6e:	e8 0e       	add	r14, r24
     b70:	f9 1e       	adc	r15, r25
     b72:	0a 1f       	adc	r16, r26
     b74:	1b 1f       	adc	r17, r27
     b76:	17 ff       	sbrs	r17, 7
     b78:	05 c0       	rjmp	.+10     	; 0xb84 <__pack_f+0x162>
     b7a:	16 95       	lsr	r17
     b7c:	07 95       	ror	r16
     b7e:	f7 94       	ror	r15
     b80:	e7 94       	ror	r14
     b82:	31 96       	adiw	r30, 0x01	; 1
     b84:	87 e0       	ldi	r24, 0x07	; 7
     b86:	16 95       	lsr	r17
     b88:	07 95       	ror	r16
     b8a:	f7 94       	ror	r15
     b8c:	e7 94       	ror	r14
     b8e:	8a 95       	dec	r24
     b90:	d1 f7       	brne	.-12     	; 0xb86 <__pack_f+0x164>
     b92:	05 c0       	rjmp	.+10     	; 0xb9e <__pack_f+0x17c>
     b94:	ee 24       	eor	r14, r14
     b96:	ff 24       	eor	r15, r15
     b98:	87 01       	movw	r16, r14
     b9a:	ef ef       	ldi	r30, 0xFF	; 255
     b9c:	f0 e0       	ldi	r31, 0x00	; 0
     b9e:	6e 2f       	mov	r22, r30
     ba0:	67 95       	ror	r22
     ba2:	66 27       	eor	r22, r22
     ba4:	67 95       	ror	r22
     ba6:	90 2f       	mov	r25, r16
     ba8:	9f 77       	andi	r25, 0x7F	; 127
     baa:	d7 94       	ror	r13
     bac:	dd 24       	eor	r13, r13
     bae:	d7 94       	ror	r13
     bb0:	8e 2f       	mov	r24, r30
     bb2:	86 95       	lsr	r24
     bb4:	49 2f       	mov	r20, r25
     bb6:	46 2b       	or	r20, r22
     bb8:	58 2f       	mov	r21, r24
     bba:	5d 29       	or	r21, r13
     bbc:	b7 01       	movw	r22, r14
     bbe:	ca 01       	movw	r24, r20
     bc0:	1f 91       	pop	r17
     bc2:	0f 91       	pop	r16
     bc4:	ff 90       	pop	r15
     bc6:	ef 90       	pop	r14
     bc8:	df 90       	pop	r13
     bca:	08 95       	ret

00000bcc <__unpack_f>:
     bcc:	fc 01       	movw	r30, r24
     bce:	db 01       	movw	r26, r22
     bd0:	40 81       	ld	r20, Z
     bd2:	51 81       	ldd	r21, Z+1	; 0x01
     bd4:	22 81       	ldd	r18, Z+2	; 0x02
     bd6:	62 2f       	mov	r22, r18
     bd8:	6f 77       	andi	r22, 0x7F	; 127
     bda:	70 e0       	ldi	r23, 0x00	; 0
     bdc:	22 1f       	adc	r18, r18
     bde:	22 27       	eor	r18, r18
     be0:	22 1f       	adc	r18, r18
     be2:	93 81       	ldd	r25, Z+3	; 0x03
     be4:	89 2f       	mov	r24, r25
     be6:	88 0f       	add	r24, r24
     be8:	82 2b       	or	r24, r18
     bea:	28 2f       	mov	r18, r24
     bec:	30 e0       	ldi	r19, 0x00	; 0
     bee:	99 1f       	adc	r25, r25
     bf0:	99 27       	eor	r25, r25
     bf2:	99 1f       	adc	r25, r25
     bf4:	11 96       	adiw	r26, 0x01	; 1
     bf6:	9c 93       	st	X, r25
     bf8:	11 97       	sbiw	r26, 0x01	; 1
     bfa:	21 15       	cp	r18, r1
     bfc:	31 05       	cpc	r19, r1
     bfe:	a9 f5       	brne	.+106    	; 0xc6a <__unpack_f+0x9e>
     c00:	41 15       	cp	r20, r1
     c02:	51 05       	cpc	r21, r1
     c04:	61 05       	cpc	r22, r1
     c06:	71 05       	cpc	r23, r1
     c08:	11 f4       	brne	.+4      	; 0xc0e <__unpack_f+0x42>
     c0a:	82 e0       	ldi	r24, 0x02	; 2
     c0c:	37 c0       	rjmp	.+110    	; 0xc7c <__unpack_f+0xb0>
     c0e:	82 e8       	ldi	r24, 0x82	; 130
     c10:	9f ef       	ldi	r25, 0xFF	; 255
     c12:	13 96       	adiw	r26, 0x03	; 3
     c14:	9c 93       	st	X, r25
     c16:	8e 93       	st	-X, r24
     c18:	12 97       	sbiw	r26, 0x02	; 2
     c1a:	9a 01       	movw	r18, r20
     c1c:	ab 01       	movw	r20, r22
     c1e:	67 e0       	ldi	r22, 0x07	; 7
     c20:	22 0f       	add	r18, r18
     c22:	33 1f       	adc	r19, r19
     c24:	44 1f       	adc	r20, r20
     c26:	55 1f       	adc	r21, r21
     c28:	6a 95       	dec	r22
     c2a:	d1 f7       	brne	.-12     	; 0xc20 <__unpack_f+0x54>
     c2c:	83 e0       	ldi	r24, 0x03	; 3
     c2e:	8c 93       	st	X, r24
     c30:	0d c0       	rjmp	.+26     	; 0xc4c <__unpack_f+0x80>
     c32:	22 0f       	add	r18, r18
     c34:	33 1f       	adc	r19, r19
     c36:	44 1f       	adc	r20, r20
     c38:	55 1f       	adc	r21, r21
     c3a:	12 96       	adiw	r26, 0x02	; 2
     c3c:	8d 91       	ld	r24, X+
     c3e:	9c 91       	ld	r25, X
     c40:	13 97       	sbiw	r26, 0x03	; 3
     c42:	01 97       	sbiw	r24, 0x01	; 1
     c44:	13 96       	adiw	r26, 0x03	; 3
     c46:	9c 93       	st	X, r25
     c48:	8e 93       	st	-X, r24
     c4a:	12 97       	sbiw	r26, 0x02	; 2
     c4c:	20 30       	cpi	r18, 0x00	; 0
     c4e:	80 e0       	ldi	r24, 0x00	; 0
     c50:	38 07       	cpc	r19, r24
     c52:	80 e0       	ldi	r24, 0x00	; 0
     c54:	48 07       	cpc	r20, r24
     c56:	80 e4       	ldi	r24, 0x40	; 64
     c58:	58 07       	cpc	r21, r24
     c5a:	58 f3       	brcs	.-42     	; 0xc32 <__unpack_f+0x66>
     c5c:	14 96       	adiw	r26, 0x04	; 4
     c5e:	2d 93       	st	X+, r18
     c60:	3d 93       	st	X+, r19
     c62:	4d 93       	st	X+, r20
     c64:	5c 93       	st	X, r21
     c66:	17 97       	sbiw	r26, 0x07	; 7
     c68:	08 95       	ret
     c6a:	2f 3f       	cpi	r18, 0xFF	; 255
     c6c:	31 05       	cpc	r19, r1
     c6e:	79 f4       	brne	.+30     	; 0xc8e <__unpack_f+0xc2>
     c70:	41 15       	cp	r20, r1
     c72:	51 05       	cpc	r21, r1
     c74:	61 05       	cpc	r22, r1
     c76:	71 05       	cpc	r23, r1
     c78:	19 f4       	brne	.+6      	; 0xc80 <__unpack_f+0xb4>
     c7a:	84 e0       	ldi	r24, 0x04	; 4
     c7c:	8c 93       	st	X, r24
     c7e:	08 95       	ret
     c80:	64 ff       	sbrs	r22, 4
     c82:	03 c0       	rjmp	.+6      	; 0xc8a <__unpack_f+0xbe>
     c84:	81 e0       	ldi	r24, 0x01	; 1
     c86:	8c 93       	st	X, r24
     c88:	12 c0       	rjmp	.+36     	; 0xcae <__unpack_f+0xe2>
     c8a:	1c 92       	st	X, r1
     c8c:	10 c0       	rjmp	.+32     	; 0xcae <__unpack_f+0xe2>
     c8e:	2f 57       	subi	r18, 0x7F	; 127
     c90:	30 40       	sbci	r19, 0x00	; 0
     c92:	13 96       	adiw	r26, 0x03	; 3
     c94:	3c 93       	st	X, r19
     c96:	2e 93       	st	-X, r18
     c98:	12 97       	sbiw	r26, 0x02	; 2
     c9a:	83 e0       	ldi	r24, 0x03	; 3
     c9c:	8c 93       	st	X, r24
     c9e:	87 e0       	ldi	r24, 0x07	; 7
     ca0:	44 0f       	add	r20, r20
     ca2:	55 1f       	adc	r21, r21
     ca4:	66 1f       	adc	r22, r22
     ca6:	77 1f       	adc	r23, r23
     ca8:	8a 95       	dec	r24
     caa:	d1 f7       	brne	.-12     	; 0xca0 <__unpack_f+0xd4>
     cac:	70 64       	ori	r23, 0x40	; 64
     cae:	14 96       	adiw	r26, 0x04	; 4
     cb0:	4d 93       	st	X+, r20
     cb2:	5d 93       	st	X+, r21
     cb4:	6d 93       	st	X+, r22
     cb6:	7c 93       	st	X, r23
     cb8:	17 97       	sbiw	r26, 0x07	; 7
     cba:	08 95       	ret

00000cbc <__fpcmp_parts_f>:
     cbc:	1f 93       	push	r17
     cbe:	dc 01       	movw	r26, r24
     cc0:	fb 01       	movw	r30, r22
     cc2:	9c 91       	ld	r25, X
     cc4:	92 30       	cpi	r25, 0x02	; 2
     cc6:	08 f4       	brcc	.+2      	; 0xcca <__fpcmp_parts_f+0xe>
     cc8:	47 c0       	rjmp	.+142    	; 0xd58 <__fpcmp_parts_f+0x9c>
     cca:	80 81       	ld	r24, Z
     ccc:	82 30       	cpi	r24, 0x02	; 2
     cce:	08 f4       	brcc	.+2      	; 0xcd2 <__fpcmp_parts_f+0x16>
     cd0:	43 c0       	rjmp	.+134    	; 0xd58 <__fpcmp_parts_f+0x9c>
     cd2:	94 30       	cpi	r25, 0x04	; 4
     cd4:	51 f4       	brne	.+20     	; 0xcea <__fpcmp_parts_f+0x2e>
     cd6:	11 96       	adiw	r26, 0x01	; 1
     cd8:	1c 91       	ld	r17, X
     cda:	84 30       	cpi	r24, 0x04	; 4
     cdc:	99 f5       	brne	.+102    	; 0xd44 <__fpcmp_parts_f+0x88>
     cde:	81 81       	ldd	r24, Z+1	; 0x01
     ce0:	68 2f       	mov	r22, r24
     ce2:	70 e0       	ldi	r23, 0x00	; 0
     ce4:	61 1b       	sub	r22, r17
     ce6:	71 09       	sbc	r23, r1
     ce8:	3f c0       	rjmp	.+126    	; 0xd68 <__fpcmp_parts_f+0xac>
     cea:	84 30       	cpi	r24, 0x04	; 4
     cec:	21 f0       	breq	.+8      	; 0xcf6 <__fpcmp_parts_f+0x3a>
     cee:	92 30       	cpi	r25, 0x02	; 2
     cf0:	31 f4       	brne	.+12     	; 0xcfe <__fpcmp_parts_f+0x42>
     cf2:	82 30       	cpi	r24, 0x02	; 2
     cf4:	b9 f1       	breq	.+110    	; 0xd64 <__fpcmp_parts_f+0xa8>
     cf6:	81 81       	ldd	r24, Z+1	; 0x01
     cf8:	88 23       	and	r24, r24
     cfa:	89 f1       	breq	.+98     	; 0xd5e <__fpcmp_parts_f+0xa2>
     cfc:	2d c0       	rjmp	.+90     	; 0xd58 <__fpcmp_parts_f+0x9c>
     cfe:	11 96       	adiw	r26, 0x01	; 1
     d00:	1c 91       	ld	r17, X
     d02:	11 97       	sbiw	r26, 0x01	; 1
     d04:	82 30       	cpi	r24, 0x02	; 2
     d06:	f1 f0       	breq	.+60     	; 0xd44 <__fpcmp_parts_f+0x88>
     d08:	81 81       	ldd	r24, Z+1	; 0x01
     d0a:	18 17       	cp	r17, r24
     d0c:	d9 f4       	brne	.+54     	; 0xd44 <__fpcmp_parts_f+0x88>
     d0e:	12 96       	adiw	r26, 0x02	; 2
     d10:	2d 91       	ld	r18, X+
     d12:	3c 91       	ld	r19, X
     d14:	13 97       	sbiw	r26, 0x03	; 3
     d16:	82 81       	ldd	r24, Z+2	; 0x02
     d18:	93 81       	ldd	r25, Z+3	; 0x03
     d1a:	82 17       	cp	r24, r18
     d1c:	93 07       	cpc	r25, r19
     d1e:	94 f0       	brlt	.+36     	; 0xd44 <__fpcmp_parts_f+0x88>
     d20:	28 17       	cp	r18, r24
     d22:	39 07       	cpc	r19, r25
     d24:	bc f0       	brlt	.+46     	; 0xd54 <__fpcmp_parts_f+0x98>
     d26:	14 96       	adiw	r26, 0x04	; 4
     d28:	8d 91       	ld	r24, X+
     d2a:	9d 91       	ld	r25, X+
     d2c:	0d 90       	ld	r0, X+
     d2e:	bc 91       	ld	r27, X
     d30:	a0 2d       	mov	r26, r0
     d32:	24 81       	ldd	r18, Z+4	; 0x04
     d34:	35 81       	ldd	r19, Z+5	; 0x05
     d36:	46 81       	ldd	r20, Z+6	; 0x06
     d38:	57 81       	ldd	r21, Z+7	; 0x07
     d3a:	28 17       	cp	r18, r24
     d3c:	39 07       	cpc	r19, r25
     d3e:	4a 07       	cpc	r20, r26
     d40:	5b 07       	cpc	r21, r27
     d42:	18 f4       	brcc	.+6      	; 0xd4a <__fpcmp_parts_f+0x8e>
     d44:	11 23       	and	r17, r17
     d46:	41 f0       	breq	.+16     	; 0xd58 <__fpcmp_parts_f+0x9c>
     d48:	0a c0       	rjmp	.+20     	; 0xd5e <__fpcmp_parts_f+0xa2>
     d4a:	82 17       	cp	r24, r18
     d4c:	93 07       	cpc	r25, r19
     d4e:	a4 07       	cpc	r26, r20
     d50:	b5 07       	cpc	r27, r21
     d52:	40 f4       	brcc	.+16     	; 0xd64 <__fpcmp_parts_f+0xa8>
     d54:	11 23       	and	r17, r17
     d56:	19 f0       	breq	.+6      	; 0xd5e <__fpcmp_parts_f+0xa2>
     d58:	61 e0       	ldi	r22, 0x01	; 1
     d5a:	70 e0       	ldi	r23, 0x00	; 0
     d5c:	05 c0       	rjmp	.+10     	; 0xd68 <__fpcmp_parts_f+0xac>
     d5e:	6f ef       	ldi	r22, 0xFF	; 255
     d60:	7f ef       	ldi	r23, 0xFF	; 255
     d62:	02 c0       	rjmp	.+4      	; 0xd68 <__fpcmp_parts_f+0xac>
     d64:	60 e0       	ldi	r22, 0x00	; 0
     d66:	70 e0       	ldi	r23, 0x00	; 0
     d68:	cb 01       	movw	r24, r22
     d6a:	1f 91       	pop	r17
     d6c:	08 95       	ret

00000d6e <M_UART_Void_UARTWriteCharacter>:
/*   FUNCTION BODY   */
/*--------------------------------------------------------------------------------------------*/
void M_UART_Void_UARTWriteCharacter(u8 Copy_U8_Data)
{
	u32 Local_U32_Counter = 0;
	UDR_REG = Copy_U8_Data;
     d6e:	8c b9       	out	0x0c, r24	; 12
     d70:	20 e0       	ldi	r18, 0x00	; 0
     d72:	30 e0       	ldi	r19, 0x00	; 0
     d74:	40 e0       	ldi	r20, 0x00	; 0
     d76:	50 e0       	ldi	r21, 0x00	; 0
	while(Local_U32_Counter < UART_POLLING_TIME)
	{
		Local_U32_Counter++;
		if(GET_BIT(UCSRA_REG,TXC_BIT) == UART_FINISHED_TRANSMITTING)
     d78:	eb e2       	ldi	r30, 0x2B	; 43
     d7a:	f0 e0       	ldi	r31, 0x00	; 0
     d7c:	80 81       	ld	r24, Z
     d7e:	86 fd       	sbrc	r24, 6
     d80:	0c c0       	rjmp	.+24     	; 0xd9a <M_UART_Void_UARTWriteCharacter+0x2c>
{
	u32 Local_U32_Counter = 0;
	UDR_REG = Copy_U8_Data;
	while(Local_U32_Counter < UART_POLLING_TIME)
	{
		Local_U32_Counter++;
     d82:	2f 5f       	subi	r18, 0xFF	; 255
     d84:	3f 4f       	sbci	r19, 0xFF	; 255
     d86:	4f 4f       	sbci	r20, 0xFF	; 255
     d88:	5f 4f       	sbci	r21, 0xFF	; 255
/*--------------------------------------------------------------------------------------------*/
void M_UART_Void_UARTWriteCharacter(u8 Copy_U8_Data)
{
	u32 Local_U32_Counter = 0;
	UDR_REG = Copy_U8_Data;
	while(Local_U32_Counter < UART_POLLING_TIME)
     d8a:	20 38       	cpi	r18, 0x80	; 128
     d8c:	84 e8       	ldi	r24, 0x84	; 132
     d8e:	38 07       	cpc	r19, r24
     d90:	8e e1       	ldi	r24, 0x1E	; 30
     d92:	48 07       	cpc	r20, r24
     d94:	80 e0       	ldi	r24, 0x00	; 0
     d96:	58 07       	cpc	r21, r24
     d98:	89 f7       	brne	.-30     	; 0xd7c <M_UART_Void_UARTWriteCharacter+0xe>
     d9a:	08 95       	ret

00000d9c <M_UART_Void_UARTWriteString>:

/*--------------------------------------------------------------------------------------------*/
/*   FUNCTION BODY   */
/*--------------------------------------------------------------------------------------------*/
void M_UART_Void_UARTWriteString(u8* Copy_U8_Ptr)
{
     d9c:	1f 93       	push	r17
     d9e:	cf 93       	push	r28
     da0:	df 93       	push	r29
     da2:	ec 01       	movw	r28, r24
	u8 Local_U8_Counter = 0;
	while(Copy_U8_Ptr[Local_U8_Counter] != NULL)
     da4:	88 81       	ld	r24, Y
     da6:	88 23       	and	r24, r24
     da8:	51 f0       	breq	.+20     	; 0xdbe <M_UART_Void_UARTWriteString+0x22>
     daa:	10 e0       	ldi	r17, 0x00	; 0
	{
		M_UART_Void_UARTWriteCharacter(Copy_U8_Ptr[Local_U8_Counter]);
     dac:	0e 94 b7 06 	call	0xd6e	; 0xd6e <M_UART_Void_UARTWriteCharacter>
		Local_U8_Counter++;
     db0:	1f 5f       	subi	r17, 0xFF	; 255
/*   FUNCTION BODY   */
/*--------------------------------------------------------------------------------------------*/
void M_UART_Void_UARTWriteString(u8* Copy_U8_Ptr)
{
	u8 Local_U8_Counter = 0;
	while(Copy_U8_Ptr[Local_U8_Counter] != NULL)
     db2:	fe 01       	movw	r30, r28
     db4:	e1 0f       	add	r30, r17
     db6:	f1 1d       	adc	r31, r1
     db8:	80 81       	ld	r24, Z
     dba:	88 23       	and	r24, r24
     dbc:	b9 f7       	brne	.-18     	; 0xdac <M_UART_Void_UARTWriteString+0x10>
	{
		M_UART_Void_UARTWriteCharacter(Copy_U8_Ptr[Local_U8_Counter]);
		Local_U8_Counter++;
	}
}
     dbe:	df 91       	pop	r29
     dc0:	cf 91       	pop	r28
     dc2:	1f 91       	pop	r17
     dc4:	08 95       	ret

00000dc6 <M_UART_U8_UARTReadCharacter>:
/*--------------------------------------------------------------------------------------------*/
/*   FUNCTION BODY   */
/*--------------------------------------------------------------------------------------------*/
u8   M_UART_U8_UARTReadCharacter(void)
{
	while(GET_BIT(UCSRA_REG,RXC_BIT) == 0);
     dc6:	eb e2       	ldi	r30, 0x2B	; 43
     dc8:	f0 e0       	ldi	r31, 0x00	; 0
     dca:	80 81       	ld	r24, Z
     dcc:	88 23       	and	r24, r24
     dce:	ec f7       	brge	.-6      	; 0xdca <M_UART_U8_UARTReadCharacter+0x4>
	return UDR_REG;
     dd0:	8c b1       	in	r24, 0x0c	; 12
}
     dd2:	08 95       	ret

00000dd4 <M_UART_Void_UARTInit>:
/*--------------------------------------------------------------------------------------------*/
/*   FUNCTION BODY   */
/*--------------------------------------------------------------------------------------------*/
void M_UART_Void_UARTInit(void)
{
	M_DIO_Void_SetPinDirection(PD0_PIN,INPUT);
     dd4:	88 e2       	ldi	r24, 0x28	; 40
     dd6:	60 e0       	ldi	r22, 0x00	; 0
     dd8:	0e 94 f2 08 	call	0x11e4	; 0x11e4 <M_DIO_Void_SetPinDirection>
	M_DIO_Void_SetPinDirection(PD1_PIN,OUTPUT);
     ddc:	89 e2       	ldi	r24, 0x29	; 41
     dde:	61 e0       	ldi	r22, 0x01	; 1
     de0:	0e 94 f2 08 	call	0x11e4	; 0x11e4 <M_DIO_Void_SetPinDirection>
	/*   TO SELECT BAUD RATE   */
	UBRRL_REG = ((F_OSC * 1000000) / ((u32)16 * UART_BAUD_RATE)) - 1 ;
     de4:	87 e0       	ldi	r24, 0x07	; 7
     de6:	89 b9       	out	0x09, r24	; 9
#if   UART_PARITY_MODE   ==   PARITY_DISABLE
	CLR_BIT(UCSRC_REG,UPM0_BIT);
     de8:	e0 e4       	ldi	r30, 0x40	; 64
     dea:	f0 e0       	ldi	r31, 0x00	; 0
     dec:	80 81       	ld	r24, Z
     dee:	8f 7e       	andi	r24, 0xEF	; 239
     df0:	80 83       	st	Z, r24
	CLR_BIT(UCSRC_REG,UPM1_BIT);
     df2:	80 81       	ld	r24, Z
     df4:	8f 7d       	andi	r24, 0xDF	; 223
     df6:	80 83       	st	Z, r24
#elif UART_PARITY_MODE   ==   PARITY_ODD
	SET_BIT(UCSRC_REG,UPM0_BIT);
	SET_BIT(UCSRC_REG,UPM1_BIT);
#endif
#if   UART_STOP_BIT   ==   1
	CLR_BIT(UCSRC_REG,USBS_BIT);
     df8:	80 81       	ld	r24, Z
     dfa:	87 7f       	andi	r24, 0xF7	; 247
     dfc:	80 83       	st	Z, r24
#elif UART_STOP_BIT   ==   2
	SET_BIT(UCSRC_REG,USBS_BIT);
#endif
	/* TO SELECT CHARACTER SIZE -> 8 BITS */
	CLR_BIT(UCSRB_REG,UCSZ2_BIT);
     dfe:	aa e2       	ldi	r26, 0x2A	; 42
     e00:	b0 e0       	ldi	r27, 0x00	; 0
     e02:	8c 91       	ld	r24, X
     e04:	8b 7f       	andi	r24, 0xFB	; 251
     e06:	8c 93       	st	X, r24
	SET_BIT(UCSRC_REG,UCSZ1_BIT);
     e08:	80 81       	ld	r24, Z
     e0a:	84 60       	ori	r24, 0x04	; 4
     e0c:	80 83       	st	Z, r24
	SET_BIT(UCSRC_REG,UCSZ0_BIT);
     e0e:	80 81       	ld	r24, Z
     e10:	82 60       	ori	r24, 0x02	; 2
     e12:	80 83       	st	Z, r24

	/* TO ENABLE RX CIRCUIT */
	SET_BIT(UCSRB_REG,RXEN_BIT);
     e14:	8c 91       	ld	r24, X
     e16:	80 61       	ori	r24, 0x10	; 16
     e18:	8c 93       	st	X, r24
	/* TO ENABLE TX CIRCUIT */
	SET_BIT(UCSRB_REG,TXEN_BIT);
     e1a:	8c 91       	ld	r24, X
     e1c:	88 60       	ori	r24, 0x08	; 8
     e1e:	8c 93       	st	X, r24
}
     e20:	08 95       	ret

00000e22 <M_Timer_Void_TimerInit>:
	CLR_BIT(TCCR0_REG,WGM00_BIT);
	CLR_BIT(TCCR0_REG,WGM01_BIT);
	/* TO ENABLE TIMER0 OV INTERRUPT */
	SET_BIT(TIMSK_REG,TOIE0_BIT);
#elif TIMER0_MODE   ==   CTC_MODE
	CLR_BIT(TCCR0_REG,WGM00_BIT);
     e22:	e3 e5       	ldi	r30, 0x53	; 83
     e24:	f0 e0       	ldi	r31, 0x00	; 0
     e26:	80 81       	ld	r24, Z
     e28:	8f 7b       	andi	r24, 0xBF	; 191
     e2a:	80 83       	st	Z, r24
	SET_BIT(TCCR0_REG,WGM01_BIT);
     e2c:	80 81       	ld	r24, Z
     e2e:	88 60       	ori	r24, 0x08	; 8
     e30:	80 83       	st	Z, r24
	/* TO ENABLE TIMER0 CM INTERRUPT */
	SET_BIT(TIMSK_REG,OCIE0_BIT);
     e32:	e9 e5       	ldi	r30, 0x59	; 89
     e34:	f0 e0       	ldi	r31, 0x00	; 0
     e36:	80 81       	ld	r24, Z
     e38:	82 60       	ori	r24, 0x02	; 2
     e3a:	80 83       	st	Z, r24
#endif
}
     e3c:	08 95       	ret

00000e3e <M_Timer_Void_TimerSetTime>:

/*--------------------------------------------------------------------------------------------*/
/*   FUNCTION BODY   */
/*--------------------------------------------------------------------------------------------*/
void M_Timer_Void_TimerSetTime(u32 Copy_U32_DesiredTime)
{
     e3e:	8f 92       	push	r8
     e40:	9f 92       	push	r9
     e42:	af 92       	push	r10
     e44:	bf 92       	push	r11
     e46:	df 92       	push	r13
     e48:	ef 92       	push	r14
     e4a:	ff 92       	push	r15
     e4c:	0f 93       	push	r16
     e4e:	1f 93       	push	r17
	u32 Local_U32_TickTime   = TIMER0_PRESCALER_DF / F_OSC; /* RESULT WILL BE IN MICRO SECONDS */
	u32 Local_U32_TotalTicks = (Copy_U32_DesiredTime * 1000) / Local_U32_TickTime;
     e50:	28 ee       	ldi	r18, 0xE8	; 232
     e52:	33 e0       	ldi	r19, 0x03	; 3
     e54:	40 e0       	ldi	r20, 0x00	; 0
     e56:	50 e0       	ldi	r21, 0x00	; 0
     e58:	0e 94 aa 11 	call	0x2354	; 0x2354 <__mulsi3>
     e5c:	4b 01       	movw	r8, r22
     e5e:	5c 01       	movw	r10, r24
     e60:	68 94       	set
     e62:	15 f8       	bld	r1, 5
     e64:	b6 94       	lsr	r11
     e66:	a7 94       	ror	r10
     e68:	97 94       	ror	r9
     e6a:	87 94       	ror	r8
     e6c:	16 94       	lsr	r1
     e6e:	d1 f7       	brne	.-12     	; 0xe64 <M_Timer_Void_TimerSetTime+0x26>
		TCNT0_REG = 256 - Timer_U8_RemTicks;
		Timer_U32_NumOfOV++;
	}
#elif TIMER0_MODE   ==   CTC_MODE
	u8 Local_U8_DivisionValue = 255;
	while(Local_U32_TotalTicks % Local_U8_DivisionValue)
     e70:	c5 01       	movw	r24, r10
     e72:	b4 01       	movw	r22, r8
     e74:	2f ef       	ldi	r18, 0xFF	; 255
     e76:	30 e0       	ldi	r19, 0x00	; 0
     e78:	40 e0       	ldi	r20, 0x00	; 0
     e7a:	50 e0       	ldi	r21, 0x00	; 0
     e7c:	0e 94 d5 11 	call	0x23aa	; 0x23aa <__udivmodsi4>
     e80:	61 15       	cp	r22, r1
     e82:	71 05       	cpc	r23, r1
     e84:	81 05       	cpc	r24, r1
     e86:	91 05       	cpc	r25, r1
     e88:	69 f4       	brne	.+26     	; 0xea4 <M_Timer_Void_TimerSetTime+0x66>
     e8a:	dd 24       	eor	r13, r13
     e8c:	da 94       	dec	r13
     e8e:	0f 2e       	mov	r0, r31
     e90:	ff ef       	ldi	r31, 0xFF	; 255
     e92:	ef 2e       	mov	r14, r31
     e94:	f0 e0       	ldi	r31, 0x00	; 0
     e96:	ff 2e       	mov	r15, r31
     e98:	f0 e0       	ldi	r31, 0x00	; 0
     e9a:	0f 2f       	mov	r16, r31
     e9c:	f0 e0       	ldi	r31, 0x00	; 0
     e9e:	1f 2f       	mov	r17, r31
     ea0:	f0 2d       	mov	r31, r0
     ea2:	12 c0       	rjmp	.+36     	; 0xec8 <M_Timer_Void_TimerSetTime+0x8a>
     ea4:	dd 24       	eor	r13, r13
     ea6:	da 94       	dec	r13
	{
		Local_U8_DivisionValue--;
     ea8:	da 94       	dec	r13
		TCNT0_REG = 256 - Timer_U8_RemTicks;
		Timer_U32_NumOfOV++;
	}
#elif TIMER0_MODE   ==   CTC_MODE
	u8 Local_U8_DivisionValue = 255;
	while(Local_U32_TotalTicks % Local_U8_DivisionValue)
     eaa:	ed 2c       	mov	r14, r13
     eac:	ff 24       	eor	r15, r15
     eae:	00 e0       	ldi	r16, 0x00	; 0
     eb0:	10 e0       	ldi	r17, 0x00	; 0
     eb2:	c5 01       	movw	r24, r10
     eb4:	b4 01       	movw	r22, r8
     eb6:	a8 01       	movw	r20, r16
     eb8:	97 01       	movw	r18, r14
     eba:	0e 94 d5 11 	call	0x23aa	; 0x23aa <__udivmodsi4>
     ebe:	61 15       	cp	r22, r1
     ec0:	71 05       	cpc	r23, r1
     ec2:	81 05       	cpc	r24, r1
     ec4:	91 05       	cpc	r25, r1
     ec6:	81 f7       	brne	.-32     	; 0xea8 <M_Timer_Void_TimerSetTime+0x6a>
	{
		Local_U8_DivisionValue--;
	}
	OCR0_REG = Local_U8_DivisionValue - 1;
     ec8:	8d 2d       	mov	r24, r13
     eca:	81 50       	subi	r24, 0x01	; 1
     ecc:	8c bf       	out	0x3c, r24	; 60
	Timer_U32_NumOfCM = Local_U32_TotalTicks / Local_U8_DivisionValue;
     ece:	c5 01       	movw	r24, r10
     ed0:	b4 01       	movw	r22, r8
     ed2:	a8 01       	movw	r20, r16
     ed4:	97 01       	movw	r18, r14
     ed6:	0e 94 d5 11 	call	0x23aa	; 0x23aa <__udivmodsi4>
     eda:	20 93 7c 01 	sts	0x017C, r18
     ede:	30 93 7d 01 	sts	0x017D, r19
     ee2:	40 93 7e 01 	sts	0x017E, r20
     ee6:	50 93 7f 01 	sts	0x017F, r21
#endif
}
     eea:	1f 91       	pop	r17
     eec:	0f 91       	pop	r16
     eee:	ff 90       	pop	r15
     ef0:	ef 90       	pop	r14
     ef2:	df 90       	pop	r13
     ef4:	bf 90       	pop	r11
     ef6:	af 90       	pop	r10
     ef8:	9f 90       	pop	r9
     efa:	8f 90       	pop	r8
     efc:	08 95       	ret

00000efe <M_Timer_Void_TimerStart>:
/*--------------------------------------------------------------------------------------------*/
/*   FUNCTION BODY   */
/*--------------------------------------------------------------------------------------------*/
void M_Timer_Void_TimerStart(u8 Copy_U8_TimerChannel)
{
	switch(Copy_U8_TimerChannel)
     efe:	88 23       	and	r24, r24
     f00:	19 f0       	breq	.+6      	; 0xf08 <M_Timer_Void_TimerStart+0xa>
     f02:	81 30       	cpi	r24, 0x01	; 1
     f04:	c1 f4       	brne	.+48     	; 0xf36 <M_Timer_Void_TimerStart+0x38>
     f06:	0c c0       	rjmp	.+24     	; 0xf20 <M_Timer_Void_TimerStart+0x22>
	{
	case TIMER0_CHANNEL:
#if   TIMER0_PRESCALER_DF   ==   1024
	SET_BIT(TCCR0_REG,CS00_BIT);
     f08:	e3 e5       	ldi	r30, 0x53	; 83
     f0a:	f0 e0       	ldi	r31, 0x00	; 0
     f0c:	80 81       	ld	r24, Z
     f0e:	81 60       	ori	r24, 0x01	; 1
     f10:	80 83       	st	Z, r24
	CLR_BIT(TCCR0_REG,CS01_BIT);
     f12:	80 81       	ld	r24, Z
     f14:	8d 7f       	andi	r24, 0xFD	; 253
     f16:	80 83       	st	Z, r24
	SET_BIT(TCCR0_REG,CS02_BIT);
     f18:	80 81       	ld	r24, Z
     f1a:	84 60       	ori	r24, 0x04	; 4
     f1c:	80 83       	st	Z, r24
     f1e:	08 95       	ret
	SET_BIT(TCCR0_REG,CS02_BIT);
#endif
		break;
	case TIMER1_CHANNEL:
#if   TIMER1_PRESCALER_DF   ==   1024
		SET_BIT(TCCR1B_REG,CS10_BIT);
     f20:	ee e4       	ldi	r30, 0x4E	; 78
     f22:	f0 e0       	ldi	r31, 0x00	; 0
     f24:	80 81       	ld	r24, Z
     f26:	81 60       	ori	r24, 0x01	; 1
     f28:	80 83       	st	Z, r24
		CLR_BIT(TCCR1B_REG,CS11_BIT);
     f2a:	80 81       	ld	r24, Z
     f2c:	8d 7f       	andi	r24, 0xFD	; 253
     f2e:	80 83       	st	Z, r24
		SET_BIT(TCCR1B_REG,CS12_BIT);
     f30:	80 81       	ld	r24, Z
     f32:	84 60       	ori	r24, 0x04	; 4
     f34:	80 83       	st	Z, r24
     f36:	08 95       	ret

00000f38 <M_Timer_Void_TimerStop>:
/*--------------------------------------------------------------------------------------------*/
/*   FUNCTION BODY   */
/*--------------------------------------------------------------------------------------------*/
void M_Timer_Void_TimerStop(u8 Copy_U8_TimerChannel)
{
	switch(Copy_U8_TimerChannel)
     f38:	88 23       	and	r24, r24
     f3a:	19 f0       	breq	.+6      	; 0xf42 <M_Timer_Void_TimerStop+0xa>
     f3c:	81 30       	cpi	r24, 0x01	; 1
     f3e:	c1 f4       	brne	.+48     	; 0xf70 <M_Timer_Void_TimerStop+0x38>
     f40:	0c c0       	rjmp	.+24     	; 0xf5a <M_Timer_Void_TimerStop+0x22>
	{
	case TIMER0_CHANNEL:
		CLR_BIT(TCCR0_REG,CS00_BIT);
     f42:	e3 e5       	ldi	r30, 0x53	; 83
     f44:	f0 e0       	ldi	r31, 0x00	; 0
     f46:	80 81       	ld	r24, Z
     f48:	8e 7f       	andi	r24, 0xFE	; 254
     f4a:	80 83       	st	Z, r24
		CLR_BIT(TCCR0_REG,CS01_BIT);
     f4c:	80 81       	ld	r24, Z
     f4e:	8d 7f       	andi	r24, 0xFD	; 253
     f50:	80 83       	st	Z, r24
		CLR_BIT(TCCR0_REG,CS02_BIT);
     f52:	80 81       	ld	r24, Z
     f54:	8b 7f       	andi	r24, 0xFB	; 251
     f56:	80 83       	st	Z, r24
     f58:	08 95       	ret

		break;
	case TIMER1_CHANNEL:
		CLR_BIT(TCCR1B_REG,CS10_BIT);
     f5a:	ee e4       	ldi	r30, 0x4E	; 78
     f5c:	f0 e0       	ldi	r31, 0x00	; 0
     f5e:	80 81       	ld	r24, Z
     f60:	8e 7f       	andi	r24, 0xFE	; 254
     f62:	80 83       	st	Z, r24
		CLR_BIT(TCCR1B_REG,CS11_BIT);
     f64:	80 81       	ld	r24, Z
     f66:	8d 7f       	andi	r24, 0xFD	; 253
     f68:	80 83       	st	Z, r24
		CLR_BIT(TCCR1B_REG,CS12_BIT);
     f6a:	80 81       	ld	r24, Z
     f6c:	8b 7f       	andi	r24, 0xFB	; 251
     f6e:	80 83       	st	Z, r24
     f70:	08 95       	ret

00000f72 <M_Timer_Void_PWMSetDutyCycle>:

/*--------------------------------------------------------------------------------------------*/
/*   FUNCTION BODY   */
/*--------------------------------------------------------------------------------------------*/
void M_Timer_Void_PWMSetDutyCycle(u8 Copy_U8_TimerChannel,f32 Copy_F32_DutyCycle)
{
     f72:	ef 92       	push	r14
     f74:	ff 92       	push	r15
     f76:	0f 93       	push	r16
     f78:	1f 93       	push	r17
     f7a:	7a 01       	movw	r14, r20
     f7c:	8b 01       	movw	r16, r22
	switch(Copy_U8_TimerChannel)
     f7e:	81 30       	cpi	r24, 0x01	; 1
     f80:	d1 f4       	brne	.+52     	; 0xfb6 <M_Timer_Void_PWMSetDutyCycle+0x44>
	OCR0_REG = ((Copy_F32_DutyCycle * 255 ) / 100);
#endif

		break;
	case TIMER1_CHANNEL:
		OCR1A_REG = ((Copy_F32_DutyCycle * ICR1_REG ) / 100) - 1;
     f82:	66 b5       	in	r22, 0x26	; 38
     f84:	77 b5       	in	r23, 0x27	; 39
     f86:	80 e0       	ldi	r24, 0x00	; 0
     f88:	90 e0       	ldi	r25, 0x00	; 0
     f8a:	0e 94 49 04 	call	0x892	; 0x892 <__floatunsisf>
     f8e:	a8 01       	movw	r20, r16
     f90:	97 01       	movw	r18, r14
     f92:	0e 94 1f 02 	call	0x43e	; 0x43e <__mulsf3>
     f96:	20 e0       	ldi	r18, 0x00	; 0
     f98:	30 e0       	ldi	r19, 0x00	; 0
     f9a:	48 ec       	ldi	r20, 0xC8	; 200
     f9c:	52 e4       	ldi	r21, 0x42	; 66
     f9e:	0e 94 19 03 	call	0x632	; 0x632 <__divsf3>
     fa2:	20 e0       	ldi	r18, 0x00	; 0
     fa4:	30 e0       	ldi	r19, 0x00	; 0
     fa6:	40 e8       	ldi	r20, 0x80	; 128
     fa8:	5f e3       	ldi	r21, 0x3F	; 63
     faa:	0e 94 c1 01 	call	0x382	; 0x382 <__subsf3>
     fae:	0e 94 49 00 	call	0x92	; 0x92 <__fixunssfsi>
     fb2:	7b bd       	out	0x2b, r23	; 43
     fb4:	6a bd       	out	0x2a, r22	; 42
		break;
	case TIMER2_CHANNEL:
		break;
	default: break;
	}
}
     fb6:	1f 91       	pop	r17
     fb8:	0f 91       	pop	r16
     fba:	ff 90       	pop	r15
     fbc:	ef 90       	pop	r14
     fbe:	08 95       	ret

00000fc0 <M_Timer_Void_PWMStart>:
/*--------------------------------------------------------------------------------------------*/
/*   FUNCTION BODY   */
/*--------------------------------------------------------------------------------------------*/
void M_Timer_Void_PWMStart(u8 Copy_U8_TimerChannel)
{
	M_Timer_Void_TimerStart(Copy_U8_TimerChannel);
     fc0:	0e 94 7f 07 	call	0xefe	; 0xefe <M_Timer_Void_TimerStart>
}
     fc4:	08 95       	ret

00000fc6 <M_Timer_Void_PWMStop>:
/*--------------------------------------------------------------------------------------------*/
/*   FUNCTION BODY   */
/*--------------------------------------------------------------------------------------------*/
void M_Timer_Void_PWMStop(u8 Copy_U8_TimerChannel)
{
	M_Timer_Void_TimerStop(Copy_U8_TimerChannel);
     fc6:	0e 94 9c 07 	call	0xf38	; 0xf38 <M_Timer_Void_TimerStop>
}
     fca:	08 95       	ret

00000fcc <M_Timer_Void_SetCallBack>:
/*--------------------------------------------------------------------------------------------*/
/*   FUNCTION BODY   */
/*--------------------------------------------------------------------------------------------*/
void M_Timer_Void_SetCallBack(void(*Copy_Ptr)(void))
{
	Timer_CallBack = Copy_Ptr;
     fcc:	90 93 86 01 	sts	0x0186, r25
     fd0:	80 93 85 01 	sts	0x0185, r24
}
     fd4:	08 95       	ret

00000fd6 <__vector_10>:

/*--------------------------------------------------------------------------------------------*/
/*   FUNCTION BODY   */
/*--------------------------------------------------------------------------------------------*/
ISR(TIMER0_COMP_vect)
{
     fd6:	1f 92       	push	r1
     fd8:	0f 92       	push	r0
     fda:	0f b6       	in	r0, 0x3f	; 63
     fdc:	0f 92       	push	r0
     fde:	11 24       	eor	r1, r1
     fe0:	2f 93       	push	r18
     fe2:	3f 93       	push	r19
     fe4:	4f 93       	push	r20
     fe6:	5f 93       	push	r21
     fe8:	6f 93       	push	r22
     fea:	7f 93       	push	r23
     fec:	8f 93       	push	r24
     fee:	9f 93       	push	r25
     ff0:	af 93       	push	r26
     ff2:	bf 93       	push	r27
     ff4:	ef 93       	push	r30
     ff6:	ff 93       	push	r31
	static u32 Local_U32_Counter = 0;
	Local_U32_Counter++;
     ff8:	80 91 81 01 	lds	r24, 0x0181
     ffc:	90 91 82 01 	lds	r25, 0x0182
    1000:	a0 91 83 01 	lds	r26, 0x0183
    1004:	b0 91 84 01 	lds	r27, 0x0184
    1008:	01 96       	adiw	r24, 0x01	; 1
    100a:	a1 1d       	adc	r26, r1
    100c:	b1 1d       	adc	r27, r1
    100e:	80 93 81 01 	sts	0x0181, r24
    1012:	90 93 82 01 	sts	0x0182, r25
    1016:	a0 93 83 01 	sts	0x0183, r26
    101a:	b0 93 84 01 	sts	0x0184, r27
	if(Local_U32_Counter == Timer_U32_NumOfCM)
    101e:	20 91 7c 01 	lds	r18, 0x017C
    1022:	30 91 7d 01 	lds	r19, 0x017D
    1026:	40 91 7e 01 	lds	r20, 0x017E
    102a:	50 91 7f 01 	lds	r21, 0x017F
    102e:	82 17       	cp	r24, r18
    1030:	93 07       	cpc	r25, r19
    1032:	a4 07       	cpc	r26, r20
    1034:	b5 07       	cpc	r27, r21
    1036:	69 f4       	brne	.+26     	; 0x1052 <__vector_10+0x7c>
	{
		Timer_CallBack();
    1038:	e0 91 85 01 	lds	r30, 0x0185
    103c:	f0 91 86 01 	lds	r31, 0x0186
    1040:	09 95       	icall
		Local_U32_Counter = 0;
    1042:	10 92 81 01 	sts	0x0181, r1
    1046:	10 92 82 01 	sts	0x0182, r1
    104a:	10 92 83 01 	sts	0x0183, r1
    104e:	10 92 84 01 	sts	0x0184, r1
	}
}
    1052:	ff 91       	pop	r31
    1054:	ef 91       	pop	r30
    1056:	bf 91       	pop	r27
    1058:	af 91       	pop	r26
    105a:	9f 91       	pop	r25
    105c:	8f 91       	pop	r24
    105e:	7f 91       	pop	r23
    1060:	6f 91       	pop	r22
    1062:	5f 91       	pop	r21
    1064:	4f 91       	pop	r20
    1066:	3f 91       	pop	r19
    1068:	2f 91       	pop	r18
    106a:	0f 90       	pop	r0
    106c:	0f be       	out	0x3f, r0	; 63
    106e:	0f 90       	pop	r0
    1070:	1f 90       	pop	r1
    1072:	18 95       	reti

00001074 <M_Timer_Void_PWMInit>:
/*--------------------------------------------------------------------------------------------*/
/*   FUNCTION BODY   */
/*--------------------------------------------------------------------------------------------*/
void M_Timer_Void_PWMInit(u8 Copy_U8_TimerChannel)
{
	switch(Copy_U8_TimerChannel)
    1074:	88 23       	and	r24, r24
    1076:	19 f0       	breq	.+6      	; 0x107e <M_Timer_Void_PWMInit+0xa>
    1078:	81 30       	cpi	r24, 0x01	; 1
    107a:	61 f5       	brne	.+88     	; 0x10d4 <M_Timer_Void_PWMInit+0x60>
    107c:	0d c0       	rjmp	.+26     	; 0x1098 <M_Timer_Void_PWMInit+0x24>
	{
	case TIMER0_CHANNEL:
		M_DIO_Void_SetPinDirection(PB3_PIN,OUTPUT);
    107e:	87 e1       	ldi	r24, 0x17	; 23
    1080:	61 e0       	ldi	r22, 0x01	; 1
    1082:	0e 94 f2 08 	call	0x11e4	; 0x11e4 <M_DIO_Void_SetPinDirection>
	#elif TIMER0_MODE   ==   PHASE_CORRECT_PWM_MODE
		SET_BIT(TCCR0_REG,WGM00_BIT);
		CLR_BIT(TCCR0_REG,WGM01_BIT);
	#endif
	#if   TIMER0_FAST_PWM_MODE   ==   NON_INVERTED
		CLR_BIT(TCCR0_REG,COM00_BIT);
    1086:	e3 e5       	ldi	r30, 0x53	; 83
    1088:	f0 e0       	ldi	r31, 0x00	; 0
    108a:	80 81       	ld	r24, Z
    108c:	8f 7e       	andi	r24, 0xEF	; 239
    108e:	80 83       	st	Z, r24
		SET_BIT(TCCR0_REG,COM01_BIT);
    1090:	80 81       	ld	r24, Z
    1092:	80 62       	ori	r24, 0x20	; 32
    1094:	80 83       	st	Z, r24
    1096:	08 95       	ret
		SET_BIT(TCCR0_REG,COM00_BIT);
		SET_BIT(TCCR0_REG,COM01_BIT);
	#endif
		break;
	case TIMER1_CHANNEL:
		M_DIO_Void_SetPinDirection(PD5_PIN,OUTPUT);
    1098:	8d e2       	ldi	r24, 0x2D	; 45
    109a:	61 e0       	ldi	r22, 0x01	; 1
    109c:	0e 94 f2 08 	call	0x11e4	; 0x11e4 <M_DIO_Void_SetPinDirection>
		/* TO SELECT MODE NO. 14 IN TABLE 47 */
		CLR_BIT(TCCR1A_REG,WGM10_BIT);
    10a0:	af e4       	ldi	r26, 0x4F	; 79
    10a2:	b0 e0       	ldi	r27, 0x00	; 0
    10a4:	8c 91       	ld	r24, X
    10a6:	8e 7f       	andi	r24, 0xFE	; 254
    10a8:	8c 93       	st	X, r24
		SET_BIT(TCCR1A_REG,WGM11_BIT);
    10aa:	8c 91       	ld	r24, X
    10ac:	82 60       	ori	r24, 0x02	; 2
    10ae:	8c 93       	st	X, r24
		SET_BIT(TCCR1B_REG,WGM12_BIT);
    10b0:	ee e4       	ldi	r30, 0x4E	; 78
    10b2:	f0 e0       	ldi	r31, 0x00	; 0
    10b4:	80 81       	ld	r24, Z
    10b6:	88 60       	ori	r24, 0x08	; 8
    10b8:	80 83       	st	Z, r24
		SET_BIT(TCCR1B_REG,WGM13_BIT);
    10ba:	80 81       	ld	r24, Z
    10bc:	80 61       	ori	r24, 0x10	; 16
    10be:	80 83       	st	Z, r24
		/* TO SELECT NON INVERTED MODE */
		CLR_BIT(TCCR1A_REG,COM1A0_BIT);
    10c0:	8c 91       	ld	r24, X
    10c2:	8f 7b       	andi	r24, 0xBF	; 191
    10c4:	8c 93       	st	X, r24
		SET_BIT(TCCR1A_REG,COM1A1_BIT);
    10c6:	8c 91       	ld	r24, X
    10c8:	80 68       	ori	r24, 0x80	; 128
    10ca:	8c 93       	st	X, r24
		ICR1_REG = ((F_OSC * 1000000) / TIMER1_PRESCALER_DF) / F_PWM1;
    10cc:	84 e0       	ldi	r24, 0x04	; 4
    10ce:	91 e0       	ldi	r25, 0x01	; 1
    10d0:	97 bd       	out	0x27, r25	; 39
    10d2:	86 bd       	out	0x26, r24	; 38
    10d4:	08 95       	ret

000010d6 <M_I2C_Void_I2CInit>:
/*   FUNCTION BODY   */
/*============================================================================================*/
void M_I2C_Void_I2CInit(void)
{

	TWBR_REG = (((I2C_F_CPU * 1000000) / ((u32)I2C_F_SCL * 1000)) - 16) / 2;
    10d6:	8c e0       	ldi	r24, 0x0C	; 12
    10d8:	80 b9       	out	0x00, r24	; 0

	//TWAR_REG = (I2C_SLAVE_ADDRESS << 1) | I2C_GENERAL_CALL;

	/* TO ENABLE 12C CIRCUIT */
	SET_BIT(TWCR_REG,TWEN_BIT);
    10da:	e6 e5       	ldi	r30, 0x56	; 86
    10dc:	f0 e0       	ldi	r31, 0x00	; 0
    10de:	80 81       	ld	r24, Z
    10e0:	84 60       	ori	r24, 0x04	; 4
    10e2:	80 83       	st	Z, r24
}
    10e4:	08 95       	ret

000010e6 <M_I2C_Void_StartCondition>:
/*============================================================================================*/
/*   FUNCTION BODY   */
/*============================================================================================*/
void M_I2C_Void_StartCondition(void)
{
	SET_BIT(TWCR_REG,TWSTA_BIT);
    10e6:	e6 e5       	ldi	r30, 0x56	; 86
    10e8:	f0 e0       	ldi	r31, 0x00	; 0
    10ea:	80 81       	ld	r24, Z
    10ec:	80 62       	ori	r24, 0x20	; 32
    10ee:	80 83       	st	Z, r24
	SET_BIT(TWCR_REG,TWINT_BIT);          /* TO CLEAR THE FLAG */
    10f0:	80 81       	ld	r24, Z
    10f2:	80 68       	ori	r24, 0x80	; 128
    10f4:	80 83       	st	Z, r24
	while(GET_BIT(TWCR_REG,TWINT_BIT) == I2C_STILL_PROCESSING);
    10f6:	80 81       	ld	r24, Z
    10f8:	88 23       	and	r24, r24
    10fa:	ec f7       	brge	.-6      	; 0x10f6 <M_I2C_Void_StartCondition+0x10>
	while((TWSR_REG & 0xF8) != I2C_START_CONDITION_HAS_BEEN_TRANSMITTED);
    10fc:	e1 e2       	ldi	r30, 0x21	; 33
    10fe:	f0 e0       	ldi	r31, 0x00	; 0
    1100:	80 81       	ld	r24, Z
    1102:	88 7f       	andi	r24, 0xF8	; 248
    1104:	88 30       	cpi	r24, 0x08	; 8
    1106:	e1 f7       	brne	.-8      	; 0x1100 <M_I2C_Void_StartCondition+0x1a>
}
    1108:	08 95       	ret

0000110a <M_I2C_Void_StopCondition>:
/*============================================================================================*/
/*   FUNCTION BODY   */
/*============================================================================================*/
void M_I2C_Void_StopCondition(void)
{
	SET_BIT(TWCR_REG,TWSTO_BIT);
    110a:	e6 e5       	ldi	r30, 0x56	; 86
    110c:	f0 e0       	ldi	r31, 0x00	; 0
    110e:	80 81       	ld	r24, Z
    1110:	80 61       	ori	r24, 0x10	; 16
    1112:	80 83       	st	Z, r24
	SET_BIT(TWCR_REG,TWINT_BIT);          /* TO CLEAR THE FLAG */
    1114:	80 81       	ld	r24, Z
    1116:	80 68       	ori	r24, 0x80	; 128
    1118:	80 83       	st	Z, r24
}
    111a:	08 95       	ret

0000111c <M_I2C_Void_RepeatedStart>:
/*============================================================================================*/
/*   FUNCTION BODY   */
/*============================================================================================*/
void M_I2C_Void_RepeatedStart(void)
{
	SET_BIT(TWCR_REG,TWSTA_BIT);
    111c:	e6 e5       	ldi	r30, 0x56	; 86
    111e:	f0 e0       	ldi	r31, 0x00	; 0
    1120:	80 81       	ld	r24, Z
    1122:	80 62       	ori	r24, 0x20	; 32
    1124:	80 83       	st	Z, r24
	SET_BIT(TWCR_REG,TWINT_BIT);          /* TO CLEAR THE FLAG */
    1126:	80 81       	ld	r24, Z
    1128:	80 68       	ori	r24, 0x80	; 128
    112a:	80 83       	st	Z, r24
	while(GET_BIT(TWCR_REG,TWINT_BIT) == I2C_STILL_PROCESSING);
    112c:	80 81       	ld	r24, Z
    112e:	88 23       	and	r24, r24
    1130:	ec f7       	brge	.-6      	; 0x112c <M_I2C_Void_RepeatedStart+0x10>
	while((TWSR_REG & 0xF8) != I2C_REPEATED_START_COND);
    1132:	e1 e2       	ldi	r30, 0x21	; 33
    1134:	f0 e0       	ldi	r31, 0x00	; 0
    1136:	80 81       	ld	r24, Z
    1138:	88 7f       	andi	r24, 0xF8	; 248
    113a:	80 31       	cpi	r24, 0x10	; 16
    113c:	e1 f7       	brne	.-8      	; 0x1136 <M_I2C_Void_RepeatedStart+0x1a>
}
    113e:	08 95       	ret

00001140 <M_I2C_Void_SendSlaveAddressWrite>:
/*============================================================================================*/
/*   FUNCTION BODY   */
/*============================================================================================*/
void M_I2C_Void_SendSlaveAddressWrite(u8 Copy_U8_SlaveAddress)
{
	TWDR_REG = (Copy_U8_SlaveAddress << 1);
    1140:	88 0f       	add	r24, r24
    1142:	83 b9       	out	0x03, r24	; 3
	SET_BIT(TWCR_REG,TWINT_BIT);          /* TO CLEAR THE FLAG */
    1144:	e6 e5       	ldi	r30, 0x56	; 86
    1146:	f0 e0       	ldi	r31, 0x00	; 0
    1148:	80 81       	ld	r24, Z
    114a:	80 68       	ori	r24, 0x80	; 128
    114c:	80 83       	st	Z, r24
	while(GET_BIT(TWCR_REG,TWINT_BIT) == I2C_STILL_PROCESSING);
    114e:	80 81       	ld	r24, Z
    1150:	88 23       	and	r24, r24
    1152:	ec f7       	brge	.-6      	; 0x114e <M_I2C_Void_SendSlaveAddressWrite+0xe>
	while((TWSR_REG & 0xF8) != I2C_SEND_SLAVE_ADD_WRITE_ACK_REC);
    1154:	e1 e2       	ldi	r30, 0x21	; 33
    1156:	f0 e0       	ldi	r31, 0x00	; 0
    1158:	80 81       	ld	r24, Z
    115a:	88 7f       	andi	r24, 0xF8	; 248
    115c:	88 31       	cpi	r24, 0x18	; 24
    115e:	e1 f7       	brne	.-8      	; 0x1158 <M_I2C_Void_SendSlaveAddressWrite+0x18>
}
    1160:	08 95       	ret

00001162 <M_I2C_Void_SendSlaveAddressRead>:
/*============================================================================================*/
/*   FUNCTION BODY   */
/*============================================================================================*/
void M_I2C_Void_SendSlaveAddressRead(u8 Copy_U8_SlaveAddress)
{
	TWDR_REG = (Copy_U8_SlaveAddress << 1) | 0x01;
    1162:	88 0f       	add	r24, r24
    1164:	81 60       	ori	r24, 0x01	; 1
    1166:	83 b9       	out	0x03, r24	; 3
	CLR_BIT(TWCR_REG,TWSTA_BIT);
    1168:	e6 e5       	ldi	r30, 0x56	; 86
    116a:	f0 e0       	ldi	r31, 0x00	; 0
    116c:	80 81       	ld	r24, Z
    116e:	8f 7d       	andi	r24, 0xDF	; 223
    1170:	80 83       	st	Z, r24
	SET_BIT(TWCR_REG,TWINT_BIT);          /* TO CLEAR THE FLAG */
    1172:	80 81       	ld	r24, Z
    1174:	80 68       	ori	r24, 0x80	; 128
    1176:	80 83       	st	Z, r24
	while(GET_BIT(TWCR_REG,TWINT_BIT) == I2C_STILL_PROCESSING);
    1178:	80 81       	ld	r24, Z
    117a:	88 23       	and	r24, r24
    117c:	ec f7       	brge	.-6      	; 0x1178 <M_I2C_Void_SendSlaveAddressRead+0x16>
	while((TWSR_REG & 0xF8) != I2C_SEND_SLAVE_ADD_READ_ACK_REC);
    117e:	e1 e2       	ldi	r30, 0x21	; 33
    1180:	f0 e0       	ldi	r31, 0x00	; 0
    1182:	80 81       	ld	r24, Z
    1184:	88 7f       	andi	r24, 0xF8	; 248
    1186:	80 34       	cpi	r24, 0x40	; 64
    1188:	e1 f7       	brne	.-8      	; 0x1182 <M_I2C_Void_SendSlaveAddressRead+0x20>
}
    118a:	08 95       	ret

0000118c <M_I2C_Void_SendByte>:
/*============================================================================================*/
/*   FUNCTION BODY   */
/*============================================================================================*/
void M_I2C_Void_SendByte(u8 Copy_U8_Data)
{
	TWDR_REG = Copy_U8_Data;
    118c:	83 b9       	out	0x03, r24	; 3
	CLR_BIT(TWCR_REG,TWSTA_BIT);
    118e:	e6 e5       	ldi	r30, 0x56	; 86
    1190:	f0 e0       	ldi	r31, 0x00	; 0
    1192:	80 81       	ld	r24, Z
    1194:	8f 7d       	andi	r24, 0xDF	; 223
    1196:	80 83       	st	Z, r24
	SET_BIT(TWCR_REG,TWINT_BIT);          /* TO CLEAR THE FLAG */
    1198:	80 81       	ld	r24, Z
    119a:	80 68       	ori	r24, 0x80	; 128
    119c:	80 83       	st	Z, r24
	while(GET_BIT(TWCR_REG,TWINT_BIT) == I2C_STILL_PROCESSING);
    119e:	80 81       	ld	r24, Z
    11a0:	88 23       	and	r24, r24
    11a2:	ec f7       	brge	.-6      	; 0x119e <M_I2C_Void_SendByte+0x12>
	while((TWSR_REG & 0xF8) != I2C_DATA_BYTE_TRANSMITTED_ACK_REC);
    11a4:	e1 e2       	ldi	r30, 0x21	; 33
    11a6:	f0 e0       	ldi	r31, 0x00	; 0
    11a8:	80 81       	ld	r24, Z
    11aa:	88 7f       	andi	r24, 0xF8	; 248
    11ac:	88 32       	cpi	r24, 0x28	; 40
    11ae:	e1 f7       	brne	.-8      	; 0x11a8 <M_I2C_Void_SendByte+0x1c>
}
    11b0:	08 95       	ret

000011b2 <M_I2C_U8_ReadByte>:
/*============================================================================================*/
/*   FUNCTION BODY   */
/*============================================================================================*/
u8   M_I2C_U8_ReadByte(void)
{
	CLR_BIT(TWCR_REG,TWSTA_BIT);
    11b2:	e6 e5       	ldi	r30, 0x56	; 86
    11b4:	f0 e0       	ldi	r31, 0x00	; 0
    11b6:	80 81       	ld	r24, Z
    11b8:	8f 7d       	andi	r24, 0xDF	; 223
    11ba:	80 83       	st	Z, r24
	SET_BIT(TWCR_REG,TWINT_BIT);          /* TO CLEAR THE FLAG */
    11bc:	80 81       	ld	r24, Z
    11be:	80 68       	ori	r24, 0x80	; 128
    11c0:	80 83       	st	Z, r24
	while(GET_BIT(TWCR_REG,TWINT_BIT) == I2C_STILL_PROCESSING);
    11c2:	80 81       	ld	r24, Z
    11c4:	88 23       	and	r24, r24
    11c6:	ec f7       	brge	.-6      	; 0x11c2 <M_I2C_U8_ReadByte+0x10>
	//while((TWSR_REG & 0xF8) != I2C_READ_BYTE);
	return TWDR_REG;
    11c8:	83 b1       	in	r24, 0x03	; 3
}
    11ca:	08 95       	ret

000011cc <M_GIE_Void_GlobalInterruptEnable>:
/*--------------------------------------------------------------------------------------------*/
/*   FUNCTION BODY   */
/*--------------------------------------------------------------------------------------------*/
void M_GIE_Void_GlobalInterruptEnable(void)
{
	SET_BIT(SREG_REG,7);
    11cc:	ef e5       	ldi	r30, 0x5F	; 95
    11ce:	f0 e0       	ldi	r31, 0x00	; 0
    11d0:	80 81       	ld	r24, Z
    11d2:	80 68       	ori	r24, 0x80	; 128
    11d4:	80 83       	st	Z, r24
}
    11d6:	08 95       	ret

000011d8 <M_GIE_Void_GlobalInterruptDisable>:
/*--------------------------------------------------------------------------------------------*/
/*   FUNCTION BODY   */
/*--------------------------------------------------------------------------------------------*/
void M_GIE_Void_GlobalInterruptDisable(void)
{
	CLR_BIT(SREG_REG,7);
    11d8:	ef e5       	ldi	r30, 0x5F	; 95
    11da:	f0 e0       	ldi	r31, 0x00	; 0
    11dc:	80 81       	ld	r24, Z
    11de:	8f 77       	andi	r24, 0x7F	; 127
    11e0:	80 83       	st	Z, r24
}
    11e2:	08 95       	ret

000011e4 <M_DIO_Void_SetPinDirection>:

/*--------------------------------------------------------------------------------------------*/
/*   FUNCTION BODY   */
/*--------------------------------------------------------------------------------------------*/
void M_DIO_Void_SetPinDirection(u8 Copy_U8_Number, u8 Copy_U8_State)
{
    11e4:	28 2f       	mov	r18, r24
    11e6:	36 2f       	mov	r19, r22

	u8 Local_U8_Bit    = Copy_U8_Number % 10;
    11e8:	6a e0       	ldi	r22, 0x0A	; 10
    11ea:	0e 94 c9 11 	call	0x2392	; 0x2392 <__udivmodqi4>
    11ee:	49 2f       	mov	r20, r25
	u8 Local_U8_Group  = Copy_U8_Number / 10;
    11f0:	82 2f       	mov	r24, r18
    11f2:	0e 94 c9 11 	call	0x2392	; 0x2392 <__udivmodqi4>
	switch(Copy_U8_State)
    11f6:	33 23       	and	r19, r19
    11f8:	21 f0       	breq	.+8      	; 0x1202 <M_DIO_Void_SetPinDirection+0x1e>
    11fa:	31 30       	cpi	r19, 0x01	; 1
    11fc:	09 f0       	breq	.+2      	; 0x1200 <M_DIO_Void_SetPinDirection+0x1c>
    11fe:	86 c0       	rjmp	.+268    	; 0x130c <M_DIO_Void_SetPinDirection+0x128>
    1200:	46 c0       	rjmp	.+140    	; 0x128e <M_DIO_Void_SetPinDirection+0xaa>
	{
	case INPUT:
		switch(Local_U8_Group)
    1202:	82 30       	cpi	r24, 0x02	; 2
    1204:	d1 f0       	breq	.+52     	; 0x123a <M_DIO_Void_SetPinDirection+0x56>
    1206:	83 30       	cpi	r24, 0x03	; 3
    1208:	20 f4       	brcc	.+8      	; 0x1212 <M_DIO_Void_SetPinDirection+0x2e>
    120a:	81 30       	cpi	r24, 0x01	; 1
    120c:	09 f0       	breq	.+2      	; 0x1210 <M_DIO_Void_SetPinDirection+0x2c>
    120e:	7e c0       	rjmp	.+252    	; 0x130c <M_DIO_Void_SetPinDirection+0x128>
    1210:	06 c0       	rjmp	.+12     	; 0x121e <M_DIO_Void_SetPinDirection+0x3a>
    1212:	83 30       	cpi	r24, 0x03	; 3
    1214:	01 f1       	breq	.+64     	; 0x1256 <M_DIO_Void_SetPinDirection+0x72>
    1216:	84 30       	cpi	r24, 0x04	; 4
    1218:	09 f0       	breq	.+2      	; 0x121c <M_DIO_Void_SetPinDirection+0x38>
    121a:	78 c0       	rjmp	.+240    	; 0x130c <M_DIO_Void_SetPinDirection+0x128>
    121c:	2a c0       	rjmp	.+84     	; 0x1272 <M_DIO_Void_SetPinDirection+0x8e>
		{
		case 1: CLR_BIT(DDRA_REG,Local_U8_Bit); break;
    121e:	ea e3       	ldi	r30, 0x3A	; 58
    1220:	f0 e0       	ldi	r31, 0x00	; 0
    1222:	20 81       	ld	r18, Z
    1224:	81 e0       	ldi	r24, 0x01	; 1
    1226:	90 e0       	ldi	r25, 0x00	; 0
    1228:	02 c0       	rjmp	.+4      	; 0x122e <M_DIO_Void_SetPinDirection+0x4a>
    122a:	88 0f       	add	r24, r24
    122c:	99 1f       	adc	r25, r25
    122e:	4a 95       	dec	r20
    1230:	e2 f7       	brpl	.-8      	; 0x122a <M_DIO_Void_SetPinDirection+0x46>
    1232:	80 95       	com	r24
    1234:	82 23       	and	r24, r18
    1236:	80 83       	st	Z, r24
    1238:	08 95       	ret
		case 2: CLR_BIT(DDRB_REG,Local_U8_Bit); break;
    123a:	e7 e3       	ldi	r30, 0x37	; 55
    123c:	f0 e0       	ldi	r31, 0x00	; 0
    123e:	20 81       	ld	r18, Z
    1240:	81 e0       	ldi	r24, 0x01	; 1
    1242:	90 e0       	ldi	r25, 0x00	; 0
    1244:	02 c0       	rjmp	.+4      	; 0x124a <M_DIO_Void_SetPinDirection+0x66>
    1246:	88 0f       	add	r24, r24
    1248:	99 1f       	adc	r25, r25
    124a:	4a 95       	dec	r20
    124c:	e2 f7       	brpl	.-8      	; 0x1246 <M_DIO_Void_SetPinDirection+0x62>
    124e:	80 95       	com	r24
    1250:	82 23       	and	r24, r18
    1252:	80 83       	st	Z, r24
    1254:	08 95       	ret
		case 3: CLR_BIT(DDRC_REG,Local_U8_Bit); break;
    1256:	e4 e3       	ldi	r30, 0x34	; 52
    1258:	f0 e0       	ldi	r31, 0x00	; 0
    125a:	20 81       	ld	r18, Z
    125c:	81 e0       	ldi	r24, 0x01	; 1
    125e:	90 e0       	ldi	r25, 0x00	; 0
    1260:	02 c0       	rjmp	.+4      	; 0x1266 <M_DIO_Void_SetPinDirection+0x82>
    1262:	88 0f       	add	r24, r24
    1264:	99 1f       	adc	r25, r25
    1266:	4a 95       	dec	r20
    1268:	e2 f7       	brpl	.-8      	; 0x1262 <M_DIO_Void_SetPinDirection+0x7e>
    126a:	80 95       	com	r24
    126c:	82 23       	and	r24, r18
    126e:	80 83       	st	Z, r24
    1270:	08 95       	ret
		case 4: CLR_BIT(DDRD_REG,Local_U8_Bit); break;
    1272:	e1 e3       	ldi	r30, 0x31	; 49
    1274:	f0 e0       	ldi	r31, 0x00	; 0
    1276:	20 81       	ld	r18, Z
    1278:	81 e0       	ldi	r24, 0x01	; 1
    127a:	90 e0       	ldi	r25, 0x00	; 0
    127c:	02 c0       	rjmp	.+4      	; 0x1282 <M_DIO_Void_SetPinDirection+0x9e>
    127e:	88 0f       	add	r24, r24
    1280:	99 1f       	adc	r25, r25
    1282:	4a 95       	dec	r20
    1284:	e2 f7       	brpl	.-8      	; 0x127e <M_DIO_Void_SetPinDirection+0x9a>
    1286:	80 95       	com	r24
    1288:	82 23       	and	r24, r18
    128a:	80 83       	st	Z, r24
    128c:	08 95       	ret
		default:                                break;
		}
		break;
		case OUTPUT:
			switch(Local_U8_Group)
    128e:	82 30       	cpi	r24, 0x02	; 2
    1290:	b9 f0       	breq	.+46     	; 0x12c0 <M_DIO_Void_SetPinDirection+0xdc>
    1292:	83 30       	cpi	r24, 0x03	; 3
    1294:	18 f4       	brcc	.+6      	; 0x129c <M_DIO_Void_SetPinDirection+0xb8>
    1296:	81 30       	cpi	r24, 0x01	; 1
    1298:	c9 f5       	brne	.+114    	; 0x130c <M_DIO_Void_SetPinDirection+0x128>
    129a:	05 c0       	rjmp	.+10     	; 0x12a6 <M_DIO_Void_SetPinDirection+0xc2>
    129c:	83 30       	cpi	r24, 0x03	; 3
    129e:	e9 f0       	breq	.+58     	; 0x12da <M_DIO_Void_SetPinDirection+0xf6>
    12a0:	84 30       	cpi	r24, 0x04	; 4
    12a2:	a1 f5       	brne	.+104    	; 0x130c <M_DIO_Void_SetPinDirection+0x128>
    12a4:	27 c0       	rjmp	.+78     	; 0x12f4 <M_DIO_Void_SetPinDirection+0x110>
			{
			case 1: SET_BIT(DDRA_REG,Local_U8_Bit); break;
    12a6:	ea e3       	ldi	r30, 0x3A	; 58
    12a8:	f0 e0       	ldi	r31, 0x00	; 0
    12aa:	20 81       	ld	r18, Z
    12ac:	81 e0       	ldi	r24, 0x01	; 1
    12ae:	90 e0       	ldi	r25, 0x00	; 0
    12b0:	02 c0       	rjmp	.+4      	; 0x12b6 <M_DIO_Void_SetPinDirection+0xd2>
    12b2:	88 0f       	add	r24, r24
    12b4:	99 1f       	adc	r25, r25
    12b6:	4a 95       	dec	r20
    12b8:	e2 f7       	brpl	.-8      	; 0x12b2 <M_DIO_Void_SetPinDirection+0xce>
    12ba:	28 2b       	or	r18, r24
    12bc:	20 83       	st	Z, r18
    12be:	08 95       	ret
			case 2: SET_BIT(DDRB_REG,Local_U8_Bit); break;
    12c0:	e7 e3       	ldi	r30, 0x37	; 55
    12c2:	f0 e0       	ldi	r31, 0x00	; 0
    12c4:	20 81       	ld	r18, Z
    12c6:	81 e0       	ldi	r24, 0x01	; 1
    12c8:	90 e0       	ldi	r25, 0x00	; 0
    12ca:	02 c0       	rjmp	.+4      	; 0x12d0 <M_DIO_Void_SetPinDirection+0xec>
    12cc:	88 0f       	add	r24, r24
    12ce:	99 1f       	adc	r25, r25
    12d0:	4a 95       	dec	r20
    12d2:	e2 f7       	brpl	.-8      	; 0x12cc <M_DIO_Void_SetPinDirection+0xe8>
    12d4:	28 2b       	or	r18, r24
    12d6:	20 83       	st	Z, r18
    12d8:	08 95       	ret
			case 3: SET_BIT(DDRC_REG,Local_U8_Bit); break;
    12da:	e4 e3       	ldi	r30, 0x34	; 52
    12dc:	f0 e0       	ldi	r31, 0x00	; 0
    12de:	20 81       	ld	r18, Z
    12e0:	81 e0       	ldi	r24, 0x01	; 1
    12e2:	90 e0       	ldi	r25, 0x00	; 0
    12e4:	02 c0       	rjmp	.+4      	; 0x12ea <M_DIO_Void_SetPinDirection+0x106>
    12e6:	88 0f       	add	r24, r24
    12e8:	99 1f       	adc	r25, r25
    12ea:	4a 95       	dec	r20
    12ec:	e2 f7       	brpl	.-8      	; 0x12e6 <M_DIO_Void_SetPinDirection+0x102>
    12ee:	28 2b       	or	r18, r24
    12f0:	20 83       	st	Z, r18
    12f2:	08 95       	ret
			case 4: SET_BIT(DDRD_REG,Local_U8_Bit); break;
    12f4:	e1 e3       	ldi	r30, 0x31	; 49
    12f6:	f0 e0       	ldi	r31, 0x00	; 0
    12f8:	20 81       	ld	r18, Z
    12fa:	81 e0       	ldi	r24, 0x01	; 1
    12fc:	90 e0       	ldi	r25, 0x00	; 0
    12fe:	02 c0       	rjmp	.+4      	; 0x1304 <M_DIO_Void_SetPinDirection+0x120>
    1300:	88 0f       	add	r24, r24
    1302:	99 1f       	adc	r25, r25
    1304:	4a 95       	dec	r20
    1306:	e2 f7       	brpl	.-8      	; 0x1300 <M_DIO_Void_SetPinDirection+0x11c>
    1308:	28 2b       	or	r18, r24
    130a:	20 83       	st	Z, r18
    130c:	08 95       	ret

0000130e <M_DIO_Void_SetPinValue>:

/*--------------------------------------------------------------------------------------------*/
/*   FUNCTION BODY   */
/*--------------------------------------------------------------------------------------------*/
void M_DIO_Void_SetPinValue(u8 Copy_U8_Number, u8 Copy_U8_State)
{
    130e:	28 2f       	mov	r18, r24
    1310:	36 2f       	mov	r19, r22
	u8 Local_U8_Bit    = Copy_U8_Number % 10;
    1312:	6a e0       	ldi	r22, 0x0A	; 10
    1314:	0e 94 c9 11 	call	0x2392	; 0x2392 <__udivmodqi4>
    1318:	49 2f       	mov	r20, r25
	u8 Local_U8_Group  = Copy_U8_Number / 10;
    131a:	82 2f       	mov	r24, r18
    131c:	0e 94 c9 11 	call	0x2392	; 0x2392 <__udivmodqi4>
	switch(Copy_U8_State)
    1320:	33 23       	and	r19, r19
    1322:	21 f0       	breq	.+8      	; 0x132c <M_DIO_Void_SetPinValue+0x1e>
    1324:	31 30       	cpi	r19, 0x01	; 1
    1326:	09 f0       	breq	.+2      	; 0x132a <M_DIO_Void_SetPinValue+0x1c>
    1328:	86 c0       	rjmp	.+268    	; 0x1436 <M_DIO_Void_SetPinValue+0x128>
    132a:	46 c0       	rjmp	.+140    	; 0x13b8 <M_DIO_Void_SetPinValue+0xaa>
	{
	case LOW:
		switch(Local_U8_Group)
    132c:	82 30       	cpi	r24, 0x02	; 2
    132e:	d1 f0       	breq	.+52     	; 0x1364 <M_DIO_Void_SetPinValue+0x56>
    1330:	83 30       	cpi	r24, 0x03	; 3
    1332:	20 f4       	brcc	.+8      	; 0x133c <M_DIO_Void_SetPinValue+0x2e>
    1334:	81 30       	cpi	r24, 0x01	; 1
    1336:	09 f0       	breq	.+2      	; 0x133a <M_DIO_Void_SetPinValue+0x2c>
    1338:	7e c0       	rjmp	.+252    	; 0x1436 <M_DIO_Void_SetPinValue+0x128>
    133a:	06 c0       	rjmp	.+12     	; 0x1348 <M_DIO_Void_SetPinValue+0x3a>
    133c:	83 30       	cpi	r24, 0x03	; 3
    133e:	01 f1       	breq	.+64     	; 0x1380 <M_DIO_Void_SetPinValue+0x72>
    1340:	84 30       	cpi	r24, 0x04	; 4
    1342:	09 f0       	breq	.+2      	; 0x1346 <M_DIO_Void_SetPinValue+0x38>
    1344:	78 c0       	rjmp	.+240    	; 0x1436 <M_DIO_Void_SetPinValue+0x128>
    1346:	2a c0       	rjmp	.+84     	; 0x139c <M_DIO_Void_SetPinValue+0x8e>
		{
		case 1: CLR_BIT(PORTA_REG,Local_U8_Bit); break;
    1348:	eb e3       	ldi	r30, 0x3B	; 59
    134a:	f0 e0       	ldi	r31, 0x00	; 0
    134c:	20 81       	ld	r18, Z
    134e:	81 e0       	ldi	r24, 0x01	; 1
    1350:	90 e0       	ldi	r25, 0x00	; 0
    1352:	02 c0       	rjmp	.+4      	; 0x1358 <M_DIO_Void_SetPinValue+0x4a>
    1354:	88 0f       	add	r24, r24
    1356:	99 1f       	adc	r25, r25
    1358:	4a 95       	dec	r20
    135a:	e2 f7       	brpl	.-8      	; 0x1354 <M_DIO_Void_SetPinValue+0x46>
    135c:	80 95       	com	r24
    135e:	82 23       	and	r24, r18
    1360:	80 83       	st	Z, r24
    1362:	08 95       	ret
		case 2: CLR_BIT(PORTB_REG,Local_U8_Bit); break;
    1364:	e8 e3       	ldi	r30, 0x38	; 56
    1366:	f0 e0       	ldi	r31, 0x00	; 0
    1368:	20 81       	ld	r18, Z
    136a:	81 e0       	ldi	r24, 0x01	; 1
    136c:	90 e0       	ldi	r25, 0x00	; 0
    136e:	02 c0       	rjmp	.+4      	; 0x1374 <M_DIO_Void_SetPinValue+0x66>
    1370:	88 0f       	add	r24, r24
    1372:	99 1f       	adc	r25, r25
    1374:	4a 95       	dec	r20
    1376:	e2 f7       	brpl	.-8      	; 0x1370 <M_DIO_Void_SetPinValue+0x62>
    1378:	80 95       	com	r24
    137a:	82 23       	and	r24, r18
    137c:	80 83       	st	Z, r24
    137e:	08 95       	ret
		case 3: CLR_BIT(PORTC_REG,Local_U8_Bit); break;
    1380:	e5 e3       	ldi	r30, 0x35	; 53
    1382:	f0 e0       	ldi	r31, 0x00	; 0
    1384:	20 81       	ld	r18, Z
    1386:	81 e0       	ldi	r24, 0x01	; 1
    1388:	90 e0       	ldi	r25, 0x00	; 0
    138a:	02 c0       	rjmp	.+4      	; 0x1390 <M_DIO_Void_SetPinValue+0x82>
    138c:	88 0f       	add	r24, r24
    138e:	99 1f       	adc	r25, r25
    1390:	4a 95       	dec	r20
    1392:	e2 f7       	brpl	.-8      	; 0x138c <M_DIO_Void_SetPinValue+0x7e>
    1394:	80 95       	com	r24
    1396:	82 23       	and	r24, r18
    1398:	80 83       	st	Z, r24
    139a:	08 95       	ret
		case 4: CLR_BIT(PORTD_REG,Local_U8_Bit); break;
    139c:	e2 e3       	ldi	r30, 0x32	; 50
    139e:	f0 e0       	ldi	r31, 0x00	; 0
    13a0:	20 81       	ld	r18, Z
    13a2:	81 e0       	ldi	r24, 0x01	; 1
    13a4:	90 e0       	ldi	r25, 0x00	; 0
    13a6:	02 c0       	rjmp	.+4      	; 0x13ac <M_DIO_Void_SetPinValue+0x9e>
    13a8:	88 0f       	add	r24, r24
    13aa:	99 1f       	adc	r25, r25
    13ac:	4a 95       	dec	r20
    13ae:	e2 f7       	brpl	.-8      	; 0x13a8 <M_DIO_Void_SetPinValue+0x9a>
    13b0:	80 95       	com	r24
    13b2:	82 23       	and	r24, r18
    13b4:	80 83       	st	Z, r24
    13b6:	08 95       	ret
		default:                                 break;
		}
		break;
		case HIGH:
			switch(Local_U8_Group)
    13b8:	82 30       	cpi	r24, 0x02	; 2
    13ba:	b9 f0       	breq	.+46     	; 0x13ea <M_DIO_Void_SetPinValue+0xdc>
    13bc:	83 30       	cpi	r24, 0x03	; 3
    13be:	18 f4       	brcc	.+6      	; 0x13c6 <M_DIO_Void_SetPinValue+0xb8>
    13c0:	81 30       	cpi	r24, 0x01	; 1
    13c2:	c9 f5       	brne	.+114    	; 0x1436 <M_DIO_Void_SetPinValue+0x128>
    13c4:	05 c0       	rjmp	.+10     	; 0x13d0 <M_DIO_Void_SetPinValue+0xc2>
    13c6:	83 30       	cpi	r24, 0x03	; 3
    13c8:	e9 f0       	breq	.+58     	; 0x1404 <M_DIO_Void_SetPinValue+0xf6>
    13ca:	84 30       	cpi	r24, 0x04	; 4
    13cc:	a1 f5       	brne	.+104    	; 0x1436 <M_DIO_Void_SetPinValue+0x128>
    13ce:	27 c0       	rjmp	.+78     	; 0x141e <M_DIO_Void_SetPinValue+0x110>
			{
			case 1: SET_BIT(PORTA_REG,Local_U8_Bit); break;
    13d0:	eb e3       	ldi	r30, 0x3B	; 59
    13d2:	f0 e0       	ldi	r31, 0x00	; 0
    13d4:	20 81       	ld	r18, Z
    13d6:	81 e0       	ldi	r24, 0x01	; 1
    13d8:	90 e0       	ldi	r25, 0x00	; 0
    13da:	02 c0       	rjmp	.+4      	; 0x13e0 <M_DIO_Void_SetPinValue+0xd2>
    13dc:	88 0f       	add	r24, r24
    13de:	99 1f       	adc	r25, r25
    13e0:	4a 95       	dec	r20
    13e2:	e2 f7       	brpl	.-8      	; 0x13dc <M_DIO_Void_SetPinValue+0xce>
    13e4:	28 2b       	or	r18, r24
    13e6:	20 83       	st	Z, r18
    13e8:	08 95       	ret
			case 2: SET_BIT(PORTB_REG,Local_U8_Bit); break;
    13ea:	e8 e3       	ldi	r30, 0x38	; 56
    13ec:	f0 e0       	ldi	r31, 0x00	; 0
    13ee:	20 81       	ld	r18, Z
    13f0:	81 e0       	ldi	r24, 0x01	; 1
    13f2:	90 e0       	ldi	r25, 0x00	; 0
    13f4:	02 c0       	rjmp	.+4      	; 0x13fa <M_DIO_Void_SetPinValue+0xec>
    13f6:	88 0f       	add	r24, r24
    13f8:	99 1f       	adc	r25, r25
    13fa:	4a 95       	dec	r20
    13fc:	e2 f7       	brpl	.-8      	; 0x13f6 <M_DIO_Void_SetPinValue+0xe8>
    13fe:	28 2b       	or	r18, r24
    1400:	20 83       	st	Z, r18
    1402:	08 95       	ret
			case 3: SET_BIT(PORTC_REG,Local_U8_Bit); break;
    1404:	e5 e3       	ldi	r30, 0x35	; 53
    1406:	f0 e0       	ldi	r31, 0x00	; 0
    1408:	20 81       	ld	r18, Z
    140a:	81 e0       	ldi	r24, 0x01	; 1
    140c:	90 e0       	ldi	r25, 0x00	; 0
    140e:	02 c0       	rjmp	.+4      	; 0x1414 <M_DIO_Void_SetPinValue+0x106>
    1410:	88 0f       	add	r24, r24
    1412:	99 1f       	adc	r25, r25
    1414:	4a 95       	dec	r20
    1416:	e2 f7       	brpl	.-8      	; 0x1410 <M_DIO_Void_SetPinValue+0x102>
    1418:	28 2b       	or	r18, r24
    141a:	20 83       	st	Z, r18
    141c:	08 95       	ret
			case 4: SET_BIT(PORTD_REG,Local_U8_Bit); break;
    141e:	e2 e3       	ldi	r30, 0x32	; 50
    1420:	f0 e0       	ldi	r31, 0x00	; 0
    1422:	20 81       	ld	r18, Z
    1424:	81 e0       	ldi	r24, 0x01	; 1
    1426:	90 e0       	ldi	r25, 0x00	; 0
    1428:	02 c0       	rjmp	.+4      	; 0x142e <M_DIO_Void_SetPinValue+0x120>
    142a:	88 0f       	add	r24, r24
    142c:	99 1f       	adc	r25, r25
    142e:	4a 95       	dec	r20
    1430:	e2 f7       	brpl	.-8      	; 0x142a <M_DIO_Void_SetPinValue+0x11c>
    1432:	28 2b       	or	r18, r24
    1434:	20 83       	st	Z, r18
    1436:	08 95       	ret

00001438 <M_DIO_Void_GetPinValue>:

/*--------------------------------------------------------------------------------------------*/
/*   FUNCTION BODY   */
/*--------------------------------------------------------------------------------------------*/
u8   M_DIO_Void_GetPinValue(u8 Copy_U8_Number)
{
    1438:	28 2f       	mov	r18, r24
	u8 Local_U8_Bit    = Copy_U8_Number % 10;
    143a:	6a e0       	ldi	r22, 0x0A	; 10
    143c:	0e 94 c9 11 	call	0x2392	; 0x2392 <__udivmodqi4>
    1440:	39 2f       	mov	r19, r25
	u8 Local_U8_Group  = Copy_U8_Number / 10;
	u8 Local_U8_Reading = 0;
	switch(Local_U8_Group)
    1442:	82 2f       	mov	r24, r18
    1444:	0e 94 c9 11 	call	0x2392	; 0x2392 <__udivmodqi4>
    1448:	82 30       	cpi	r24, 0x02	; 2
    144a:	a1 f0       	breq	.+40     	; 0x1474 <M_DIO_Void_GetPinValue+0x3c>
    144c:	83 30       	cpi	r24, 0x03	; 3
    144e:	18 f4       	brcc	.+6      	; 0x1456 <M_DIO_Void_GetPinValue+0x1e>
    1450:	81 30       	cpi	r24, 0x01	; 1
    1452:	29 f4       	brne	.+10     	; 0x145e <M_DIO_Void_GetPinValue+0x26>
    1454:	06 c0       	rjmp	.+12     	; 0x1462 <M_DIO_Void_GetPinValue+0x2a>
    1456:	83 30       	cpi	r24, 0x03	; 3
    1458:	b1 f0       	breq	.+44     	; 0x1486 <M_DIO_Void_GetPinValue+0x4e>
    145a:	84 30       	cpi	r24, 0x04	; 4
    145c:	e9 f0       	breq	.+58     	; 0x1498 <M_DIO_Void_GetPinValue+0x60>
    145e:	80 e0       	ldi	r24, 0x00	; 0
    1460:	08 95       	ret
	{
	case 1: Local_U8_Reading = GET_BIT(PINA_REG,Local_U8_Bit); break;
    1462:	89 b3       	in	r24, 0x19	; 25
    1464:	90 e0       	ldi	r25, 0x00	; 0
    1466:	02 c0       	rjmp	.+4      	; 0x146c <M_DIO_Void_GetPinValue+0x34>
    1468:	95 95       	asr	r25
    146a:	87 95       	ror	r24
    146c:	3a 95       	dec	r19
    146e:	e2 f7       	brpl	.-8      	; 0x1468 <M_DIO_Void_GetPinValue+0x30>
    1470:	81 70       	andi	r24, 0x01	; 1
    1472:	08 95       	ret
	case 2: Local_U8_Reading = GET_BIT(PINB_REG,Local_U8_Bit); break;
    1474:	86 b3       	in	r24, 0x16	; 22
    1476:	90 e0       	ldi	r25, 0x00	; 0
    1478:	02 c0       	rjmp	.+4      	; 0x147e <M_DIO_Void_GetPinValue+0x46>
    147a:	95 95       	asr	r25
    147c:	87 95       	ror	r24
    147e:	3a 95       	dec	r19
    1480:	e2 f7       	brpl	.-8      	; 0x147a <M_DIO_Void_GetPinValue+0x42>
    1482:	81 70       	andi	r24, 0x01	; 1
    1484:	08 95       	ret
	case 3: Local_U8_Reading = GET_BIT(PINC_REG,Local_U8_Bit); break;
    1486:	83 b3       	in	r24, 0x13	; 19
    1488:	90 e0       	ldi	r25, 0x00	; 0
    148a:	02 c0       	rjmp	.+4      	; 0x1490 <M_DIO_Void_GetPinValue+0x58>
    148c:	95 95       	asr	r25
    148e:	87 95       	ror	r24
    1490:	3a 95       	dec	r19
    1492:	e2 f7       	brpl	.-8      	; 0x148c <M_DIO_Void_GetPinValue+0x54>
    1494:	81 70       	andi	r24, 0x01	; 1
    1496:	08 95       	ret
	case 4: Local_U8_Reading = GET_BIT(PIND_REG,Local_U8_Bit); break;
    1498:	80 b3       	in	r24, 0x10	; 16
    149a:	90 e0       	ldi	r25, 0x00	; 0
    149c:	02 c0       	rjmp	.+4      	; 0x14a2 <M_DIO_Void_GetPinValue+0x6a>
    149e:	95 95       	asr	r25
    14a0:	87 95       	ror	r24
    14a2:	3a 95       	dec	r19
    14a4:	e2 f7       	brpl	.-8      	; 0x149e <M_DIO_Void_GetPinValue+0x66>
    14a6:	81 70       	andi	r24, 0x01	; 1
	default:                                                   break;
	}
	return Local_U8_Reading ;
}
    14a8:	08 95       	ret

000014aa <M_DIO_Void_TogPin>:

/*--------------------------------------------------------------------------------------------*/
/*   FUNCTION BODY   */
/*--------------------------------------------------------------------------------------------*/
void M_DIO_Void_TogPin(u8 Copy_U8_Number)
{
    14aa:	28 2f       	mov	r18, r24
	u8 Local_U8_Bit    = Copy_U8_Number % 10;
    14ac:	6a e0       	ldi	r22, 0x0A	; 10
    14ae:	0e 94 c9 11 	call	0x2392	; 0x2392 <__udivmodqi4>
    14b2:	39 2f       	mov	r19, r25
	u8 Local_U8_Group  = Copy_U8_Number / 10;
	switch(Local_U8_Group)
    14b4:	82 2f       	mov	r24, r18
    14b6:	0e 94 c9 11 	call	0x2392	; 0x2392 <__udivmodqi4>
    14ba:	82 30       	cpi	r24, 0x02	; 2
    14bc:	b9 f0       	breq	.+46     	; 0x14ec <M_DIO_Void_TogPin+0x42>
    14be:	83 30       	cpi	r24, 0x03	; 3
    14c0:	18 f4       	brcc	.+6      	; 0x14c8 <M_DIO_Void_TogPin+0x1e>
    14c2:	81 30       	cpi	r24, 0x01	; 1
    14c4:	c9 f5       	brne	.+114    	; 0x1538 <M_DIO_Void_TogPin+0x8e>
    14c6:	05 c0       	rjmp	.+10     	; 0x14d2 <M_DIO_Void_TogPin+0x28>
    14c8:	83 30       	cpi	r24, 0x03	; 3
    14ca:	e9 f0       	breq	.+58     	; 0x1506 <M_DIO_Void_TogPin+0x5c>
    14cc:	84 30       	cpi	r24, 0x04	; 4
    14ce:	a1 f5       	brne	.+104    	; 0x1538 <M_DIO_Void_TogPin+0x8e>
    14d0:	27 c0       	rjmp	.+78     	; 0x1520 <M_DIO_Void_TogPin+0x76>
	{
	case 1: TOG_BIT(PORTA_REG,Local_U8_Bit); break;
    14d2:	eb e3       	ldi	r30, 0x3B	; 59
    14d4:	f0 e0       	ldi	r31, 0x00	; 0
    14d6:	20 81       	ld	r18, Z
    14d8:	81 e0       	ldi	r24, 0x01	; 1
    14da:	90 e0       	ldi	r25, 0x00	; 0
    14dc:	02 c0       	rjmp	.+4      	; 0x14e2 <M_DIO_Void_TogPin+0x38>
    14de:	88 0f       	add	r24, r24
    14e0:	99 1f       	adc	r25, r25
    14e2:	3a 95       	dec	r19
    14e4:	e2 f7       	brpl	.-8      	; 0x14de <M_DIO_Void_TogPin+0x34>
    14e6:	28 27       	eor	r18, r24
    14e8:	20 83       	st	Z, r18
    14ea:	08 95       	ret
	case 2: TOG_BIT(PORTB_REG,Local_U8_Bit); break;
    14ec:	e8 e3       	ldi	r30, 0x38	; 56
    14ee:	f0 e0       	ldi	r31, 0x00	; 0
    14f0:	20 81       	ld	r18, Z
    14f2:	81 e0       	ldi	r24, 0x01	; 1
    14f4:	90 e0       	ldi	r25, 0x00	; 0
    14f6:	02 c0       	rjmp	.+4      	; 0x14fc <M_DIO_Void_TogPin+0x52>
    14f8:	88 0f       	add	r24, r24
    14fa:	99 1f       	adc	r25, r25
    14fc:	3a 95       	dec	r19
    14fe:	e2 f7       	brpl	.-8      	; 0x14f8 <M_DIO_Void_TogPin+0x4e>
    1500:	28 27       	eor	r18, r24
    1502:	20 83       	st	Z, r18
    1504:	08 95       	ret
	case 3: TOG_BIT(PORTC_REG,Local_U8_Bit); break;
    1506:	e5 e3       	ldi	r30, 0x35	; 53
    1508:	f0 e0       	ldi	r31, 0x00	; 0
    150a:	20 81       	ld	r18, Z
    150c:	81 e0       	ldi	r24, 0x01	; 1
    150e:	90 e0       	ldi	r25, 0x00	; 0
    1510:	02 c0       	rjmp	.+4      	; 0x1516 <M_DIO_Void_TogPin+0x6c>
    1512:	88 0f       	add	r24, r24
    1514:	99 1f       	adc	r25, r25
    1516:	3a 95       	dec	r19
    1518:	e2 f7       	brpl	.-8      	; 0x1512 <M_DIO_Void_TogPin+0x68>
    151a:	28 27       	eor	r18, r24
    151c:	20 83       	st	Z, r18
    151e:	08 95       	ret
	case 4: TOG_BIT(PORTD_REG,Local_U8_Bit); break;
    1520:	e2 e3       	ldi	r30, 0x32	; 50
    1522:	f0 e0       	ldi	r31, 0x00	; 0
    1524:	20 81       	ld	r18, Z
    1526:	81 e0       	ldi	r24, 0x01	; 1
    1528:	90 e0       	ldi	r25, 0x00	; 0
    152a:	02 c0       	rjmp	.+4      	; 0x1530 <M_DIO_Void_TogPin+0x86>
    152c:	88 0f       	add	r24, r24
    152e:	99 1f       	adc	r25, r25
    1530:	3a 95       	dec	r19
    1532:	e2 f7       	brpl	.-8      	; 0x152c <M_DIO_Void_TogPin+0x82>
    1534:	28 27       	eor	r18, r24
    1536:	20 83       	st	Z, r18
    1538:	08 95       	ret

0000153a <M_DIO_Void_SetPinPullUpRes>:

/*--------------------------------------------------------------------------------------------*/
/*   FUNCTION BODY   */
/*--------------------------------------------------------------------------------------------*/
void M_DIO_Void_SetPinPullUpRes(u8 Copy_U8_Number,u8 Copy_U8_State)
{
    153a:	28 2f       	mov	r18, r24
    153c:	36 2f       	mov	r19, r22
	u8 Local_U8_Bit    = Copy_U8_Number % 10;
    153e:	6a e0       	ldi	r22, 0x0A	; 10
    1540:	0e 94 c9 11 	call	0x2392	; 0x2392 <__udivmodqi4>
    1544:	49 2f       	mov	r20, r25
	u8 Local_U8_Group  = Copy_U8_Number / 10;
    1546:	82 2f       	mov	r24, r18
    1548:	0e 94 c9 11 	call	0x2392	; 0x2392 <__udivmodqi4>
	switch(Copy_U8_State)
    154c:	33 23       	and	r19, r19
    154e:	21 f0       	breq	.+8      	; 0x1558 <M_DIO_Void_SetPinPullUpRes+0x1e>
    1550:	31 30       	cpi	r19, 0x01	; 1
    1552:	09 f0       	breq	.+2      	; 0x1556 <M_DIO_Void_SetPinPullUpRes+0x1c>
    1554:	86 c0       	rjmp	.+268    	; 0x1662 <M_DIO_Void_SetPinPullUpRes+0x128>
    1556:	46 c0       	rjmp	.+140    	; 0x15e4 <M_DIO_Void_SetPinPullUpRes+0xaa>
	{
	case DISABLE:
		switch(Local_U8_Group)
    1558:	82 30       	cpi	r24, 0x02	; 2
    155a:	d1 f0       	breq	.+52     	; 0x1590 <M_DIO_Void_SetPinPullUpRes+0x56>
    155c:	83 30       	cpi	r24, 0x03	; 3
    155e:	20 f4       	brcc	.+8      	; 0x1568 <M_DIO_Void_SetPinPullUpRes+0x2e>
    1560:	81 30       	cpi	r24, 0x01	; 1
    1562:	09 f0       	breq	.+2      	; 0x1566 <M_DIO_Void_SetPinPullUpRes+0x2c>
    1564:	7e c0       	rjmp	.+252    	; 0x1662 <M_DIO_Void_SetPinPullUpRes+0x128>
    1566:	06 c0       	rjmp	.+12     	; 0x1574 <M_DIO_Void_SetPinPullUpRes+0x3a>
    1568:	83 30       	cpi	r24, 0x03	; 3
    156a:	01 f1       	breq	.+64     	; 0x15ac <M_DIO_Void_SetPinPullUpRes+0x72>
    156c:	84 30       	cpi	r24, 0x04	; 4
    156e:	09 f0       	breq	.+2      	; 0x1572 <M_DIO_Void_SetPinPullUpRes+0x38>
    1570:	78 c0       	rjmp	.+240    	; 0x1662 <M_DIO_Void_SetPinPullUpRes+0x128>
    1572:	2a c0       	rjmp	.+84     	; 0x15c8 <M_DIO_Void_SetPinPullUpRes+0x8e>
		{
		case 1: CLR_BIT(PORTA_REG,Local_U8_Bit); break;
    1574:	eb e3       	ldi	r30, 0x3B	; 59
    1576:	f0 e0       	ldi	r31, 0x00	; 0
    1578:	20 81       	ld	r18, Z
    157a:	81 e0       	ldi	r24, 0x01	; 1
    157c:	90 e0       	ldi	r25, 0x00	; 0
    157e:	02 c0       	rjmp	.+4      	; 0x1584 <M_DIO_Void_SetPinPullUpRes+0x4a>
    1580:	88 0f       	add	r24, r24
    1582:	99 1f       	adc	r25, r25
    1584:	4a 95       	dec	r20
    1586:	e2 f7       	brpl	.-8      	; 0x1580 <M_DIO_Void_SetPinPullUpRes+0x46>
    1588:	80 95       	com	r24
    158a:	82 23       	and	r24, r18
    158c:	80 83       	st	Z, r24
    158e:	08 95       	ret
		case 2: CLR_BIT(PORTB_REG,Local_U8_Bit); break;
    1590:	e8 e3       	ldi	r30, 0x38	; 56
    1592:	f0 e0       	ldi	r31, 0x00	; 0
    1594:	20 81       	ld	r18, Z
    1596:	81 e0       	ldi	r24, 0x01	; 1
    1598:	90 e0       	ldi	r25, 0x00	; 0
    159a:	02 c0       	rjmp	.+4      	; 0x15a0 <M_DIO_Void_SetPinPullUpRes+0x66>
    159c:	88 0f       	add	r24, r24
    159e:	99 1f       	adc	r25, r25
    15a0:	4a 95       	dec	r20
    15a2:	e2 f7       	brpl	.-8      	; 0x159c <M_DIO_Void_SetPinPullUpRes+0x62>
    15a4:	80 95       	com	r24
    15a6:	82 23       	and	r24, r18
    15a8:	80 83       	st	Z, r24
    15aa:	08 95       	ret
		case 3: CLR_BIT(PORTC_REG,Local_U8_Bit); break;
    15ac:	e5 e3       	ldi	r30, 0x35	; 53
    15ae:	f0 e0       	ldi	r31, 0x00	; 0
    15b0:	20 81       	ld	r18, Z
    15b2:	81 e0       	ldi	r24, 0x01	; 1
    15b4:	90 e0       	ldi	r25, 0x00	; 0
    15b6:	02 c0       	rjmp	.+4      	; 0x15bc <M_DIO_Void_SetPinPullUpRes+0x82>
    15b8:	88 0f       	add	r24, r24
    15ba:	99 1f       	adc	r25, r25
    15bc:	4a 95       	dec	r20
    15be:	e2 f7       	brpl	.-8      	; 0x15b8 <M_DIO_Void_SetPinPullUpRes+0x7e>
    15c0:	80 95       	com	r24
    15c2:	82 23       	and	r24, r18
    15c4:	80 83       	st	Z, r24
    15c6:	08 95       	ret
		case 4: CLR_BIT(PORTD_REG,Local_U8_Bit); break;
    15c8:	e2 e3       	ldi	r30, 0x32	; 50
    15ca:	f0 e0       	ldi	r31, 0x00	; 0
    15cc:	20 81       	ld	r18, Z
    15ce:	81 e0       	ldi	r24, 0x01	; 1
    15d0:	90 e0       	ldi	r25, 0x00	; 0
    15d2:	02 c0       	rjmp	.+4      	; 0x15d8 <M_DIO_Void_SetPinPullUpRes+0x9e>
    15d4:	88 0f       	add	r24, r24
    15d6:	99 1f       	adc	r25, r25
    15d8:	4a 95       	dec	r20
    15da:	e2 f7       	brpl	.-8      	; 0x15d4 <M_DIO_Void_SetPinPullUpRes+0x9a>
    15dc:	80 95       	com	r24
    15de:	82 23       	and	r24, r18
    15e0:	80 83       	st	Z, r24
    15e2:	08 95       	ret
		default:                                 break;
		}
		break;
		case ENABLE:
			switch(Local_U8_Group)
    15e4:	82 30       	cpi	r24, 0x02	; 2
    15e6:	b9 f0       	breq	.+46     	; 0x1616 <M_DIO_Void_SetPinPullUpRes+0xdc>
    15e8:	83 30       	cpi	r24, 0x03	; 3
    15ea:	18 f4       	brcc	.+6      	; 0x15f2 <M_DIO_Void_SetPinPullUpRes+0xb8>
    15ec:	81 30       	cpi	r24, 0x01	; 1
    15ee:	c9 f5       	brne	.+114    	; 0x1662 <M_DIO_Void_SetPinPullUpRes+0x128>
    15f0:	05 c0       	rjmp	.+10     	; 0x15fc <M_DIO_Void_SetPinPullUpRes+0xc2>
    15f2:	83 30       	cpi	r24, 0x03	; 3
    15f4:	e9 f0       	breq	.+58     	; 0x1630 <M_DIO_Void_SetPinPullUpRes+0xf6>
    15f6:	84 30       	cpi	r24, 0x04	; 4
    15f8:	a1 f5       	brne	.+104    	; 0x1662 <M_DIO_Void_SetPinPullUpRes+0x128>
    15fa:	27 c0       	rjmp	.+78     	; 0x164a <M_DIO_Void_SetPinPullUpRes+0x110>
			{
			case 1: SET_BIT(PORTA_REG,Local_U8_Bit); break;
    15fc:	eb e3       	ldi	r30, 0x3B	; 59
    15fe:	f0 e0       	ldi	r31, 0x00	; 0
    1600:	20 81       	ld	r18, Z
    1602:	81 e0       	ldi	r24, 0x01	; 1
    1604:	90 e0       	ldi	r25, 0x00	; 0
    1606:	02 c0       	rjmp	.+4      	; 0x160c <M_DIO_Void_SetPinPullUpRes+0xd2>
    1608:	88 0f       	add	r24, r24
    160a:	99 1f       	adc	r25, r25
    160c:	4a 95       	dec	r20
    160e:	e2 f7       	brpl	.-8      	; 0x1608 <M_DIO_Void_SetPinPullUpRes+0xce>
    1610:	28 2b       	or	r18, r24
    1612:	20 83       	st	Z, r18
    1614:	08 95       	ret
			case 2: SET_BIT(PORTB_REG,Local_U8_Bit); break;
    1616:	e8 e3       	ldi	r30, 0x38	; 56
    1618:	f0 e0       	ldi	r31, 0x00	; 0
    161a:	20 81       	ld	r18, Z
    161c:	81 e0       	ldi	r24, 0x01	; 1
    161e:	90 e0       	ldi	r25, 0x00	; 0
    1620:	02 c0       	rjmp	.+4      	; 0x1626 <M_DIO_Void_SetPinPullUpRes+0xec>
    1622:	88 0f       	add	r24, r24
    1624:	99 1f       	adc	r25, r25
    1626:	4a 95       	dec	r20
    1628:	e2 f7       	brpl	.-8      	; 0x1622 <M_DIO_Void_SetPinPullUpRes+0xe8>
    162a:	28 2b       	or	r18, r24
    162c:	20 83       	st	Z, r18
    162e:	08 95       	ret
			case 3: SET_BIT(PORTC_REG,Local_U8_Bit); break;
    1630:	e5 e3       	ldi	r30, 0x35	; 53
    1632:	f0 e0       	ldi	r31, 0x00	; 0
    1634:	20 81       	ld	r18, Z
    1636:	81 e0       	ldi	r24, 0x01	; 1
    1638:	90 e0       	ldi	r25, 0x00	; 0
    163a:	02 c0       	rjmp	.+4      	; 0x1640 <M_DIO_Void_SetPinPullUpRes+0x106>
    163c:	88 0f       	add	r24, r24
    163e:	99 1f       	adc	r25, r25
    1640:	4a 95       	dec	r20
    1642:	e2 f7       	brpl	.-8      	; 0x163c <M_DIO_Void_SetPinPullUpRes+0x102>
    1644:	28 2b       	or	r18, r24
    1646:	20 83       	st	Z, r18
    1648:	08 95       	ret
			case 4: SET_BIT(PORTD_REG,Local_U8_Bit); break;
    164a:	e2 e3       	ldi	r30, 0x32	; 50
    164c:	f0 e0       	ldi	r31, 0x00	; 0
    164e:	20 81       	ld	r18, Z
    1650:	81 e0       	ldi	r24, 0x01	; 1
    1652:	90 e0       	ldi	r25, 0x00	; 0
    1654:	02 c0       	rjmp	.+4      	; 0x165a <M_DIO_Void_SetPinPullUpRes+0x120>
    1656:	88 0f       	add	r24, r24
    1658:	99 1f       	adc	r25, r25
    165a:	4a 95       	dec	r20
    165c:	e2 f7       	brpl	.-8      	; 0x1656 <M_DIO_Void_SetPinPullUpRes+0x11c>
    165e:	28 2b       	or	r18, r24
    1660:	20 83       	st	Z, r18
    1662:	08 95       	ret

00001664 <M_ADC_Void_ADCInit>:
/*   FUNCTION BODY   */
/*--------------------------------------------------------------------------------------------*/
void M_ADC_Void_ADCInit(void)
{
#if   ADC_VREF   ==   AVCC
	SET_BIT(ADMUX_REG,REFS0_BIT);
    1664:	e7 e2       	ldi	r30, 0x27	; 39
    1666:	f0 e0       	ldi	r31, 0x00	; 0
    1668:	80 81       	ld	r24, Z
    166a:	80 64       	ori	r24, 0x40	; 64
    166c:	80 83       	st	Z, r24
	CLR_BIT(ADMUX_REG,REFS1_BIT);
    166e:	80 81       	ld	r24, Z
    1670:	8f 77       	andi	r24, 0x7F	; 127
    1672:	80 83       	st	Z, r24
#elif ADC_VREF   ==   _2V5
	SET_BIT(ADMUX_REG,REFS0_BIT);
	SET_BIT(ADMUX_REG,REFS1_BIT);
#endif
	/* TO SELECT RIGHT ADJUST */
	CLR_BIT(ADMUX_REG,ADLAR_BIT);
    1674:	80 81       	ld	r24, Z
    1676:	8f 7d       	andi	r24, 0xDF	; 223
    1678:	80 83       	st	Z, r24
#if   ADC_PRESCALER_DV   ==   128
	SET_BIT(ADCSRA_REG,ADPS0_BIT);
    167a:	e6 e2       	ldi	r30, 0x26	; 38
    167c:	f0 e0       	ldi	r31, 0x00	; 0
    167e:	80 81       	ld	r24, Z
    1680:	81 60       	ori	r24, 0x01	; 1
    1682:	80 83       	st	Z, r24
	SET_BIT(ADCSRA_REG,ADPS1_BIT);
    1684:	80 81       	ld	r24, Z
    1686:	82 60       	ori	r24, 0x02	; 2
    1688:	80 83       	st	Z, r24
	SET_BIT(ADCSRA_REG,ADPS2_BIT);
    168a:	80 81       	ld	r24, Z
    168c:	84 60       	ori	r24, 0x04	; 4
    168e:	80 83       	st	Z, r24
	SET_BIT(ADCSRA_REG,ADPS1_BIT);
	SET_BIT(ADCSRA_REG,ADPS2_BIT);
#endif

	/* TO ENABLE AUTO TRIGGER MODE */
	SET_BIT(ADCSRA_REG,ADATE_BIT);
    1690:	80 81       	ld	r24, Z
    1692:	80 62       	ori	r24, 0x20	; 32
    1694:	80 83       	st	Z, r24
	/* TO ENABLE ADC CIRCUIT */
	SET_BIT(ADCSRA_REG,ADEN_BIT);
    1696:	80 81       	ld	r24, Z
    1698:	80 68       	ori	r24, 0x80	; 128
    169a:	80 83       	st	Z, r24
	/* TO START CONVERSION */
	SET_BIT(ADCSRA_REG,ADSC_BIT);
    169c:	80 81       	ld	r24, Z
    169e:	80 64       	ori	r24, 0x40	; 64
    16a0:	80 83       	st	Z, r24
}
    16a2:	08 95       	ret

000016a4 <M_ADC_Void_ADCRead>:
/*--------------------------------------------------------------------------------------------*/
/*   FUNCTION BODY   */
/*--------------------------------------------------------------------------------------------*/
u16  M_ADC_Void_ADCRead(u8 Copy_U8_ADCChannel)
{
	ADMUX_REG = (ADMUX_REG & ADMUX_MASK) | Copy_U8_ADCChannel;
    16a4:	e7 e2       	ldi	r30, 0x27	; 39
    16a6:	f0 e0       	ldi	r31, 0x00	; 0
    16a8:	90 81       	ld	r25, Z
    16aa:	90 7e       	andi	r25, 0xE0	; 224
    16ac:	89 2b       	or	r24, r25
    16ae:	80 83       	st	Z, r24
    16b0:	20 e0       	ldi	r18, 0x00	; 0
    16b2:	30 e0       	ldi	r19, 0x00	; 0
    16b4:	40 e0       	ldi	r20, 0x00	; 0
    16b6:	50 e0       	ldi	r21, 0x00	; 0
	u32 Local_U32_Counter = 0;
	while(Local_U32_Counter < ADC_POLLING_TIME)
	{
		Local_U32_Counter++;
		if(GET_BIT(ADCSRA_REG,ADIF_BIT) == ADC_FINISH_CONVERTING)
    16b8:	e6 e2       	ldi	r30, 0x26	; 38
    16ba:	f0 e0       	ldi	r31, 0x00	; 0
    16bc:	80 81       	ld	r24, Z
    16be:	84 fd       	sbrc	r24, 4
    16c0:	0c c0       	rjmp	.+24     	; 0x16da <M_ADC_Void_ADCRead+0x36>
{
	ADMUX_REG = (ADMUX_REG & ADMUX_MASK) | Copy_U8_ADCChannel;
	u32 Local_U32_Counter = 0;
	while(Local_U32_Counter < ADC_POLLING_TIME)
	{
		Local_U32_Counter++;
    16c2:	2f 5f       	subi	r18, 0xFF	; 255
    16c4:	3f 4f       	sbci	r19, 0xFF	; 255
    16c6:	4f 4f       	sbci	r20, 0xFF	; 255
    16c8:	5f 4f       	sbci	r21, 0xFF	; 255
/*--------------------------------------------------------------------------------------------*/
u16  M_ADC_Void_ADCRead(u8 Copy_U8_ADCChannel)
{
	ADMUX_REG = (ADMUX_REG & ADMUX_MASK) | Copy_U8_ADCChannel;
	u32 Local_U32_Counter = 0;
	while(Local_U32_Counter < ADC_POLLING_TIME)
    16ca:	20 38       	cpi	r18, 0x80	; 128
    16cc:	84 e8       	ldi	r24, 0x84	; 132
    16ce:	38 07       	cpc	r19, r24
    16d0:	8e e1       	ldi	r24, 0x1E	; 30
    16d2:	48 07       	cpc	r20, r24
    16d4:	80 e0       	ldi	r24, 0x00	; 0
    16d6:	58 07       	cpc	r21, r24
    16d8:	89 f7       	brne	.-30     	; 0x16bc <M_ADC_Void_ADCRead+0x18>
		if(GET_BIT(ADCSRA_REG,ADIF_BIT) == ADC_FINISH_CONVERTING)
		{
			break;
		}
	}
	return ADCVALUE_REG;
    16da:	24 b1       	in	r18, 0x04	; 4
    16dc:	35 b1       	in	r19, 0x05	; 5
}
    16de:	82 2f       	mov	r24, r18
    16e0:	93 2f       	mov	r25, r19
    16e2:	08 95       	ret

000016e4 <H_WIFI_U8_WIFIRead>:
/*--------------------------------------------------------------------------------------------*/
/*   FUNCTION BODY   */
/*--------------------------------------------------------------------------------------------*/
u8   H_WIFI_U8_WIFIRead(void)
{
	return M_UART_U8_UARTReadCharacter();
    16e4:	0e 94 e3 06 	call	0xdc6	; 0xdc6 <M_UART_U8_UARTReadCharacter>
}
    16e8:	08 95       	ret

000016ea <H_WIFI_Void_WIFIWriteString>:

/*--------------------------------------------------------------------------------------------*/
/*   FUNCTION BODY   */
/*--------------------------------------------------------------------------------------------*/
void H_WIFI_Void_WIFIWriteString(u8* Copy_U8_Ptr)
{
    16ea:	1f 93       	push	r17
    16ec:	cf 93       	push	r28
    16ee:	df 93       	push	r29
    16f0:	ec 01       	movw	r28, r24
	u8 Local_U8_Counter = 0;
	while(Copy_U8_Ptr[Local_U8_Counter] != NULL)
    16f2:	88 81       	ld	r24, Y
    16f4:	88 23       	and	r24, r24
    16f6:	51 f0       	breq	.+20     	; 0x170c <H_WIFI_Void_WIFIWriteString+0x22>
    16f8:	10 e0       	ldi	r17, 0x00	; 0
	{
		M_UART_Void_UARTWriteCharacter(Copy_U8_Ptr[Local_U8_Counter]);
    16fa:	0e 94 b7 06 	call	0xd6e	; 0xd6e <M_UART_Void_UARTWriteCharacter>
		Local_U8_Counter++;
    16fe:	1f 5f       	subi	r17, 0xFF	; 255
/*   FUNCTION BODY   */
/*--------------------------------------------------------------------------------------------*/
void H_WIFI_Void_WIFIWriteString(u8* Copy_U8_Ptr)
{
	u8 Local_U8_Counter = 0;
	while(Copy_U8_Ptr[Local_U8_Counter] != NULL)
    1700:	fe 01       	movw	r30, r28
    1702:	e1 0f       	add	r30, r17
    1704:	f1 1d       	adc	r31, r1
    1706:	80 81       	ld	r24, Z
    1708:	88 23       	and	r24, r24
    170a:	b9 f7       	brne	.-18     	; 0x16fa <H_WIFI_Void_WIFIWriteString+0x10>
	{
		M_UART_Void_UARTWriteCharacter(Copy_U8_Ptr[Local_U8_Counter]);
		Local_U8_Counter++;
	}
}
    170c:	df 91       	pop	r29
    170e:	cf 91       	pop	r28
    1710:	1f 91       	pop	r17
    1712:	08 95       	ret

00001714 <H_WIFI_Void_WIFIWriteCharacter>:
/*--------------------------------------------------------------------------------------------*/
/*   FUNCTION BODY   */
/*--------------------------------------------------------------------------------------------*/
void H_WIFI_Void_WIFIWriteCharacter(u8 Copy_U8_Data)
{
	M_UART_Void_UARTWriteCharacter(Copy_U8_Data);
    1714:	0e 94 b7 06 	call	0xd6e	; 0xd6e <M_UART_Void_UARTWriteCharacter>
}
    1718:	08 95       	ret

0000171a <H_WIFI_Void_WIFIInit>:
/*--------------------------------------------------------------------------------------------*/
/*   FUNCTION BODY   */
/*--------------------------------------------------------------------------------------------*/
void H_WIFI_Void_WIFIInit(void)
{
	M_UART_Void_UARTInit();
    171a:	0e 94 ea 06 	call	0xdd4	; 0xdd4 <M_UART_Void_UARTInit>
}
    171e:	08 95       	ret

00001720 <H_SSD_Void_SSDDisplay>:

/*============================================================================================*/
/*   FUNCTION BODY   */
/*============================================================================================*/
void H_SSD_Void_SSDDisplay(u32 Copy_U32_Num)
{
    1720:	2f 92       	push	r2
    1722:	3f 92       	push	r3
    1724:	4f 92       	push	r4
    1726:	5f 92       	push	r5
    1728:	6f 92       	push	r6
    172a:	7f 92       	push	r7
    172c:	8f 92       	push	r8
    172e:	9f 92       	push	r9
    1730:	af 92       	push	r10
    1732:	bf 92       	push	r11
    1734:	cf 92       	push	r12
    1736:	df 92       	push	r13
    1738:	ef 92       	push	r14
    173a:	ff 92       	push	r15
    173c:	0f 93       	push	r16
    173e:	1f 93       	push	r17
    1740:	df 93       	push	r29
    1742:	cf 93       	push	r28
    1744:	00 d0       	rcall	.+0      	; 0x1746 <H_SSD_Void_SSDDisplay+0x26>
    1746:	00 d0       	rcall	.+0      	; 0x1748 <H_SSD_Void_SSDDisplay+0x28>
    1748:	cd b7       	in	r28, 0x3d	; 61
    174a:	de b7       	in	r29, 0x3e	; 62
    174c:	7b 01       	movw	r14, r22
    174e:	8c 01       	movw	r16, r24
	u8 Local_U8_1    =  Copy_U32_Num % 10;
    1750:	2a e0       	ldi	r18, 0x0A	; 10
    1752:	30 e0       	ldi	r19, 0x00	; 0
    1754:	40 e0       	ldi	r20, 0x00	; 0
    1756:	50 e0       	ldi	r21, 0x00	; 0
    1758:	0e 94 d5 11 	call	0x23aa	; 0x23aa <__udivmodsi4>
    175c:	b6 2e       	mov	r11, r22
	u8 Local_U8_10   = (Copy_U32_Num / 10) % 10;
    175e:	c8 01       	movw	r24, r16
    1760:	b7 01       	movw	r22, r14
    1762:	2a e0       	ldi	r18, 0x0A	; 10
    1764:	30 e0       	ldi	r19, 0x00	; 0
    1766:	40 e0       	ldi	r20, 0x00	; 0
    1768:	50 e0       	ldi	r21, 0x00	; 0
    176a:	0e 94 d5 11 	call	0x23aa	; 0x23aa <__udivmodsi4>
    176e:	ca 01       	movw	r24, r20
    1770:	b9 01       	movw	r22, r18
    1772:	2a e0       	ldi	r18, 0x0A	; 10
    1774:	30 e0       	ldi	r19, 0x00	; 0
    1776:	40 e0       	ldi	r20, 0x00	; 0
    1778:	50 e0       	ldi	r21, 0x00	; 0
    177a:	0e 94 d5 11 	call	0x23aa	; 0x23aa <__udivmodsi4>
    177e:	c6 2e       	mov	r12, r22
	u8 Local_U8_100  = (Copy_U32_Num / 100) % 10;
    1780:	c8 01       	movw	r24, r16
    1782:	b7 01       	movw	r22, r14
    1784:	24 e6       	ldi	r18, 0x64	; 100
    1786:	30 e0       	ldi	r19, 0x00	; 0
    1788:	40 e0       	ldi	r20, 0x00	; 0
    178a:	50 e0       	ldi	r21, 0x00	; 0
    178c:	0e 94 d5 11 	call	0x23aa	; 0x23aa <__udivmodsi4>
    1790:	ca 01       	movw	r24, r20
    1792:	b9 01       	movw	r22, r18
    1794:	2a e0       	ldi	r18, 0x0A	; 10
    1796:	30 e0       	ldi	r19, 0x00	; 0
    1798:	40 e0       	ldi	r20, 0x00	; 0
    179a:	50 e0       	ldi	r21, 0x00	; 0
    179c:	0e 94 d5 11 	call	0x23aa	; 0x23aa <__udivmodsi4>
    17a0:	d6 2e       	mov	r13, r22
	u8 Local_U8_1000 =  Copy_U32_Num / 1000;
    17a2:	c8 01       	movw	r24, r16
    17a4:	b7 01       	movw	r22, r14
    17a6:	28 ee       	ldi	r18, 0xE8	; 232
    17a8:	33 e0       	ldi	r19, 0x03	; 3
    17aa:	40 e0       	ldi	r20, 0x00	; 0
    17ac:	50 e0       	ldi	r21, 0x00	; 0
    17ae:	0e 94 d5 11 	call	0x23aa	; 0x23aa <__udivmodsi4>
	u32 Local_U16_Counter = 0;
	for(Local_U16_Counter = 0 ; Local_U16_Counter < SSD_DISPLAY_TIME ; Local_U16_Counter++)
	{
		M_DIO_Void_SetPinValue(SSD_A_PIN,GET_BIT(Local_U8_1,0));
		M_DIO_Void_SetPinValue(SSD_B_PIN,GET_BIT(Local_U8_1,1));
    17b2:	8b 2d       	mov	r24, r11
    17b4:	86 95       	lsr	r24
    17b6:	81 70       	andi	r24, 0x01	; 1
    17b8:	8a 83       	std	Y+2, r24	; 0x02
		M_DIO_Void_SetPinValue(SSD_C_PIN,GET_BIT(Local_U8_1,2));
    17ba:	8b 2d       	mov	r24, r11
    17bc:	86 95       	lsr	r24
    17be:	86 95       	lsr	r24
    17c0:	81 70       	andi	r24, 0x01	; 1
    17c2:	89 83       	std	Y+1, r24	; 0x01
		M_DIO_Void_SetPinValue(SSD_D_PIN,GET_BIT(Local_U8_1,3));
    17c4:	8b 2d       	mov	r24, r11
    17c6:	86 95       	lsr	r24
    17c8:	86 95       	lsr	r24
    17ca:	86 95       	lsr	r24
    17cc:	22 24       	eor	r2, r2
    17ce:	23 94       	inc	r2
    17d0:	28 22       	and	r2, r24
		M_DIO_Void_SetPinValue(SSD1_EN_PIN,LOW);
		_delay_ms(1);
		M_DIO_Void_SetPinValue(SSD1_EN_PIN,HIGH);

		M_DIO_Void_SetPinValue(SSD_A_PIN,GET_BIT(Local_U8_10,0));
		M_DIO_Void_SetPinValue(SSD_B_PIN,GET_BIT(Local_U8_10,1));
    17d2:	8c 2d       	mov	r24, r12
    17d4:	86 95       	lsr	r24
    17d6:	33 24       	eor	r3, r3
    17d8:	33 94       	inc	r3
    17da:	38 22       	and	r3, r24
		M_DIO_Void_SetPinValue(SSD_C_PIN,GET_BIT(Local_U8_10,2));
    17dc:	8c 2d       	mov	r24, r12
    17de:	86 95       	lsr	r24
    17e0:	86 95       	lsr	r24
    17e2:	44 24       	eor	r4, r4
    17e4:	43 94       	inc	r4
    17e6:	48 22       	and	r4, r24
		M_DIO_Void_SetPinValue(SSD_D_PIN,GET_BIT(Local_U8_10,3));
    17e8:	8c 2d       	mov	r24, r12
    17ea:	86 95       	lsr	r24
    17ec:	86 95       	lsr	r24
    17ee:	86 95       	lsr	r24
    17f0:	55 24       	eor	r5, r5
    17f2:	53 94       	inc	r5
    17f4:	58 22       	and	r5, r24
		M_DIO_Void_SetPinValue(SSD2_EN_PIN,LOW);
		_delay_ms(1);
		M_DIO_Void_SetPinValue(SSD2_EN_PIN,HIGH);

		M_DIO_Void_SetPinValue(SSD_A_PIN,GET_BIT(Local_U8_100,0));
		M_DIO_Void_SetPinValue(SSD_B_PIN,GET_BIT(Local_U8_100,1));
    17f6:	8d 2d       	mov	r24, r13
    17f8:	86 95       	lsr	r24
    17fa:	66 24       	eor	r6, r6
    17fc:	63 94       	inc	r6
    17fe:	68 22       	and	r6, r24
		M_DIO_Void_SetPinValue(SSD_C_PIN,GET_BIT(Local_U8_100,2));
    1800:	8d 2d       	mov	r24, r13
    1802:	86 95       	lsr	r24
    1804:	86 95       	lsr	r24
    1806:	77 24       	eor	r7, r7
    1808:	73 94       	inc	r7
    180a:	78 22       	and	r7, r24
		M_DIO_Void_SetPinValue(SSD_D_PIN,GET_BIT(Local_U8_100,3));
    180c:	8d 2d       	mov	r24, r13
    180e:	86 95       	lsr	r24
    1810:	86 95       	lsr	r24
    1812:	86 95       	lsr	r24
    1814:	88 24       	eor	r8, r8
    1816:	83 94       	inc	r8
    1818:	88 22       	and	r8, r24
		_delay_ms(1);
		M_DIO_Void_SetPinValue(SSD3_EN_PIN,HIGH);


		M_DIO_Void_SetPinValue(SSD_A_PIN,GET_BIT(Local_U8_1000,0));
		M_DIO_Void_SetPinValue(SSD_B_PIN,GET_BIT(Local_U8_1000,1));
    181a:	82 2f       	mov	r24, r18
    181c:	86 95       	lsr	r24
    181e:	99 24       	eor	r9, r9
    1820:	93 94       	inc	r9
    1822:	98 22       	and	r9, r24
		M_DIO_Void_SetPinValue(SSD_C_PIN,GET_BIT(Local_U8_1000,2));
    1824:	82 2f       	mov	r24, r18
    1826:	86 95       	lsr	r24
    1828:	86 95       	lsr	r24
    182a:	aa 24       	eor	r10, r10
    182c:	a3 94       	inc	r10
    182e:	a8 22       	and	r10, r24
		M_DIO_Void_SetPinValue(SSD_D_PIN,GET_BIT(Local_U8_1000,3));
    1830:	82 2f       	mov	r24, r18
    1832:	86 95       	lsr	r24
    1834:	86 95       	lsr	r24
    1836:	86 95       	lsr	r24
    1838:	ff 24       	eor	r15, r15
    183a:	f3 94       	inc	r15
    183c:	f8 22       	and	r15, r24
    183e:	1c 82       	std	Y+4, r1	; 0x04
    1840:	1b 82       	std	Y+3, r1	; 0x03
	u8 Local_U8_100  = (Copy_U32_Num / 100) % 10;
	u8 Local_U8_1000 =  Copy_U32_Num / 1000;
	u32 Local_U16_Counter = 0;
	for(Local_U16_Counter = 0 ; Local_U16_Counter < SSD_DISPLAY_TIME ; Local_U16_Counter++)
	{
		M_DIO_Void_SetPinValue(SSD_A_PIN,GET_BIT(Local_U8_1,0));
    1842:	81 e0       	ldi	r24, 0x01	; 1
    1844:	b8 22       	and	r11, r24
    milliseconds can be achieved.
 */
void
_delay_loop_2(uint16_t __count)
{
	__asm__ volatile (
    1846:	00 ea       	ldi	r16, 0xA0	; 160
    1848:	1f e0       	ldi	r17, 0x0F	; 15
		M_DIO_Void_SetPinValue(SSD_D_PIN,GET_BIT(Local_U8_1,3));
		M_DIO_Void_SetPinValue(SSD1_EN_PIN,LOW);
		_delay_ms(1);
		M_DIO_Void_SetPinValue(SSD1_EN_PIN,HIGH);

		M_DIO_Void_SetPinValue(SSD_A_PIN,GET_BIT(Local_U8_10,0));
    184a:	c8 22       	and	r12, r24
		M_DIO_Void_SetPinValue(SSD_D_PIN,GET_BIT(Local_U8_10,3));
		M_DIO_Void_SetPinValue(SSD2_EN_PIN,LOW);
		_delay_ms(1);
		M_DIO_Void_SetPinValue(SSD2_EN_PIN,HIGH);

		M_DIO_Void_SetPinValue(SSD_A_PIN,GET_BIT(Local_U8_100,0));
    184c:	d8 22       	and	r13, r24
		M_DIO_Void_SetPinValue(SSD3_EN_PIN,LOW);
		_delay_ms(1);
		M_DIO_Void_SetPinValue(SSD3_EN_PIN,HIGH);


		M_DIO_Void_SetPinValue(SSD_A_PIN,GET_BIT(Local_U8_1000,0));
    184e:	ee 24       	eor	r14, r14
    1850:	e3 94       	inc	r14
    1852:	e2 22       	and	r14, r18
	u8 Local_U8_100  = (Copy_U32_Num / 100) % 10;
	u8 Local_U8_1000 =  Copy_U32_Num / 1000;
	u32 Local_U16_Counter = 0;
	for(Local_U16_Counter = 0 ; Local_U16_Counter < SSD_DISPLAY_TIME ; Local_U16_Counter++)
	{
		M_DIO_Void_SetPinValue(SSD_A_PIN,GET_BIT(Local_U8_1,0));
    1854:	84 e1       	ldi	r24, 0x14	; 20
    1856:	6b 2d       	mov	r22, r11
    1858:	0e 94 87 09 	call	0x130e	; 0x130e <M_DIO_Void_SetPinValue>
		M_DIO_Void_SetPinValue(SSD_B_PIN,GET_BIT(Local_U8_1,1));
    185c:	85 e1       	ldi	r24, 0x15	; 21
    185e:	6a 81       	ldd	r22, Y+2	; 0x02
    1860:	0e 94 87 09 	call	0x130e	; 0x130e <M_DIO_Void_SetPinValue>
		M_DIO_Void_SetPinValue(SSD_C_PIN,GET_BIT(Local_U8_1,2));
    1864:	86 e1       	ldi	r24, 0x16	; 22
    1866:	69 81       	ldd	r22, Y+1	; 0x01
    1868:	0e 94 87 09 	call	0x130e	; 0x130e <M_DIO_Void_SetPinValue>
		M_DIO_Void_SetPinValue(SSD_D_PIN,GET_BIT(Local_U8_1,3));
    186c:	88 e1       	ldi	r24, 0x18	; 24
    186e:	62 2d       	mov	r22, r2
    1870:	0e 94 87 09 	call	0x130e	; 0x130e <M_DIO_Void_SetPinValue>
		M_DIO_Void_SetPinValue(SSD1_EN_PIN,LOW);
    1874:	8d e0       	ldi	r24, 0x0D	; 13
    1876:	60 e0       	ldi	r22, 0x00	; 0
    1878:	0e 94 87 09 	call	0x130e	; 0x130e <M_DIO_Void_SetPinValue>
    187c:	c8 01       	movw	r24, r16
    187e:	01 97       	sbiw	r24, 0x01	; 1
    1880:	f1 f7       	brne	.-4      	; 0x187e <H_SSD_Void_SSDDisplay+0x15e>
		_delay_ms(1);
		M_DIO_Void_SetPinValue(SSD1_EN_PIN,HIGH);
    1882:	8d e0       	ldi	r24, 0x0D	; 13
    1884:	61 e0       	ldi	r22, 0x01	; 1
    1886:	0e 94 87 09 	call	0x130e	; 0x130e <M_DIO_Void_SetPinValue>

		M_DIO_Void_SetPinValue(SSD_A_PIN,GET_BIT(Local_U8_10,0));
    188a:	84 e1       	ldi	r24, 0x14	; 20
    188c:	6c 2d       	mov	r22, r12
    188e:	0e 94 87 09 	call	0x130e	; 0x130e <M_DIO_Void_SetPinValue>
		M_DIO_Void_SetPinValue(SSD_B_PIN,GET_BIT(Local_U8_10,1));
    1892:	85 e1       	ldi	r24, 0x15	; 21
    1894:	63 2d       	mov	r22, r3
    1896:	0e 94 87 09 	call	0x130e	; 0x130e <M_DIO_Void_SetPinValue>
		M_DIO_Void_SetPinValue(SSD_C_PIN,GET_BIT(Local_U8_10,2));
    189a:	86 e1       	ldi	r24, 0x16	; 22
    189c:	64 2d       	mov	r22, r4
    189e:	0e 94 87 09 	call	0x130e	; 0x130e <M_DIO_Void_SetPinValue>
		M_DIO_Void_SetPinValue(SSD_D_PIN,GET_BIT(Local_U8_10,3));
    18a2:	88 e1       	ldi	r24, 0x18	; 24
    18a4:	65 2d       	mov	r22, r5
    18a6:	0e 94 87 09 	call	0x130e	; 0x130e <M_DIO_Void_SetPinValue>
		M_DIO_Void_SetPinValue(SSD2_EN_PIN,LOW);
    18aa:	8c e0       	ldi	r24, 0x0C	; 12
    18ac:	60 e0       	ldi	r22, 0x00	; 0
    18ae:	0e 94 87 09 	call	0x130e	; 0x130e <M_DIO_Void_SetPinValue>
    18b2:	c8 01       	movw	r24, r16
    18b4:	01 97       	sbiw	r24, 0x01	; 1
    18b6:	f1 f7       	brne	.-4      	; 0x18b4 <H_SSD_Void_SSDDisplay+0x194>
		_delay_ms(1);
		M_DIO_Void_SetPinValue(SSD2_EN_PIN,HIGH);
    18b8:	8c e0       	ldi	r24, 0x0C	; 12
    18ba:	61 e0       	ldi	r22, 0x01	; 1
    18bc:	0e 94 87 09 	call	0x130e	; 0x130e <M_DIO_Void_SetPinValue>

		M_DIO_Void_SetPinValue(SSD_A_PIN,GET_BIT(Local_U8_100,0));
    18c0:	84 e1       	ldi	r24, 0x14	; 20
    18c2:	6d 2d       	mov	r22, r13
    18c4:	0e 94 87 09 	call	0x130e	; 0x130e <M_DIO_Void_SetPinValue>
		M_DIO_Void_SetPinValue(SSD_B_PIN,GET_BIT(Local_U8_100,1));
    18c8:	85 e1       	ldi	r24, 0x15	; 21
    18ca:	66 2d       	mov	r22, r6
    18cc:	0e 94 87 09 	call	0x130e	; 0x130e <M_DIO_Void_SetPinValue>
		M_DIO_Void_SetPinValue(SSD_C_PIN,GET_BIT(Local_U8_100,2));
    18d0:	86 e1       	ldi	r24, 0x16	; 22
    18d2:	67 2d       	mov	r22, r7
    18d4:	0e 94 87 09 	call	0x130e	; 0x130e <M_DIO_Void_SetPinValue>
		M_DIO_Void_SetPinValue(SSD_D_PIN,GET_BIT(Local_U8_100,3));
    18d8:	88 e1       	ldi	r24, 0x18	; 24
    18da:	68 2d       	mov	r22, r8
    18dc:	0e 94 87 09 	call	0x130e	; 0x130e <M_DIO_Void_SetPinValue>
		M_DIO_Void_SetPinValue(SSD3_EN_PIN,LOW);
    18e0:	89 e1       	ldi	r24, 0x19	; 25
    18e2:	60 e0       	ldi	r22, 0x00	; 0
    18e4:	0e 94 87 09 	call	0x130e	; 0x130e <M_DIO_Void_SetPinValue>
    18e8:	c8 01       	movw	r24, r16
    18ea:	01 97       	sbiw	r24, 0x01	; 1
    18ec:	f1 f7       	brne	.-4      	; 0x18ea <H_SSD_Void_SSDDisplay+0x1ca>
		_delay_ms(1);
		M_DIO_Void_SetPinValue(SSD3_EN_PIN,HIGH);
    18ee:	89 e1       	ldi	r24, 0x19	; 25
    18f0:	61 e0       	ldi	r22, 0x01	; 1
    18f2:	0e 94 87 09 	call	0x130e	; 0x130e <M_DIO_Void_SetPinValue>


		M_DIO_Void_SetPinValue(SSD_A_PIN,GET_BIT(Local_U8_1000,0));
    18f6:	84 e1       	ldi	r24, 0x14	; 20
    18f8:	6e 2d       	mov	r22, r14
    18fa:	0e 94 87 09 	call	0x130e	; 0x130e <M_DIO_Void_SetPinValue>
		M_DIO_Void_SetPinValue(SSD_B_PIN,GET_BIT(Local_U8_1000,1));
    18fe:	85 e1       	ldi	r24, 0x15	; 21
    1900:	69 2d       	mov	r22, r9
    1902:	0e 94 87 09 	call	0x130e	; 0x130e <M_DIO_Void_SetPinValue>
		M_DIO_Void_SetPinValue(SSD_C_PIN,GET_BIT(Local_U8_1000,2));
    1906:	86 e1       	ldi	r24, 0x16	; 22
    1908:	6a 2d       	mov	r22, r10
    190a:	0e 94 87 09 	call	0x130e	; 0x130e <M_DIO_Void_SetPinValue>
		M_DIO_Void_SetPinValue(SSD_D_PIN,GET_BIT(Local_U8_1000,3));
    190e:	88 e1       	ldi	r24, 0x18	; 24
    1910:	6f 2d       	mov	r22, r15
    1912:	0e 94 87 09 	call	0x130e	; 0x130e <M_DIO_Void_SetPinValue>
		M_DIO_Void_SetPinValue(SSD4_EN_PIN,LOW);
    1916:	8a e1       	ldi	r24, 0x1A	; 26
    1918:	60 e0       	ldi	r22, 0x00	; 0
    191a:	0e 94 87 09 	call	0x130e	; 0x130e <M_DIO_Void_SetPinValue>
    191e:	c8 01       	movw	r24, r16
    1920:	01 97       	sbiw	r24, 0x01	; 1
    1922:	f1 f7       	brne	.-4      	; 0x1920 <H_SSD_Void_SSDDisplay+0x200>
		_delay_ms(1);
		M_DIO_Void_SetPinValue(SSD4_EN_PIN,HIGH);
    1924:	8a e1       	ldi	r24, 0x1A	; 26
    1926:	61 e0       	ldi	r22, 0x01	; 1
    1928:	0e 94 87 09 	call	0x130e	; 0x130e <M_DIO_Void_SetPinValue>
    192c:	eb 81       	ldd	r30, Y+3	; 0x03
    192e:	fc 81       	ldd	r31, Y+4	; 0x04
    1930:	31 96       	adiw	r30, 0x01	; 1
    1932:	fc 83       	std	Y+4, r31	; 0x04
    1934:	eb 83       	std	Y+3, r30	; 0x03
	u8 Local_U8_1    =  Copy_U32_Num % 10;
	u8 Local_U8_10   = (Copy_U32_Num / 10) % 10;
	u8 Local_U8_100  = (Copy_U32_Num / 100) % 10;
	u8 Local_U8_1000 =  Copy_U32_Num / 1000;
	u32 Local_U16_Counter = 0;
	for(Local_U16_Counter = 0 ; Local_U16_Counter < SSD_DISPLAY_TIME ; Local_U16_Counter++)
    1936:	e8 3c       	cpi	r30, 0xC8	; 200
    1938:	f1 05       	cpc	r31, r1
    193a:	09 f0       	breq	.+2      	; 0x193e <H_SSD_Void_SSDDisplay+0x21e>
    193c:	8b cf       	rjmp	.-234    	; 0x1854 <H_SSD_Void_SSDDisplay+0x134>
		M_DIO_Void_SetPinValue(SSD_D_PIN,GET_BIT(Local_U8_1000,3));
		M_DIO_Void_SetPinValue(SSD4_EN_PIN,LOW);
		_delay_ms(1);
		M_DIO_Void_SetPinValue(SSD4_EN_PIN,HIGH);
	}
}
    193e:	0f 90       	pop	r0
    1940:	0f 90       	pop	r0
    1942:	0f 90       	pop	r0
    1944:	0f 90       	pop	r0
    1946:	cf 91       	pop	r28
    1948:	df 91       	pop	r29
    194a:	1f 91       	pop	r17
    194c:	0f 91       	pop	r16
    194e:	ff 90       	pop	r15
    1950:	ef 90       	pop	r14
    1952:	df 90       	pop	r13
    1954:	cf 90       	pop	r12
    1956:	bf 90       	pop	r11
    1958:	af 90       	pop	r10
    195a:	9f 90       	pop	r9
    195c:	8f 90       	pop	r8
    195e:	7f 90       	pop	r7
    1960:	6f 90       	pop	r6
    1962:	5f 90       	pop	r5
    1964:	4f 90       	pop	r4
    1966:	3f 90       	pop	r3
    1968:	2f 90       	pop	r2
    196a:	08 95       	ret

0000196c <H_SSD_Void_SSDInit>:
/*============================================================================================*/
/*   FUNCTION BODY   */
/*============================================================================================*/
void H_SSD_Void_SSDInit(void)
{
	M_DIO_Void_SetPinDirection(SSD_A_PIN,OUTPUT);
    196c:	84 e1       	ldi	r24, 0x14	; 20
    196e:	61 e0       	ldi	r22, 0x01	; 1
    1970:	0e 94 f2 08 	call	0x11e4	; 0x11e4 <M_DIO_Void_SetPinDirection>
	M_DIO_Void_SetPinDirection(SSD_B_PIN,OUTPUT);
    1974:	85 e1       	ldi	r24, 0x15	; 21
    1976:	61 e0       	ldi	r22, 0x01	; 1
    1978:	0e 94 f2 08 	call	0x11e4	; 0x11e4 <M_DIO_Void_SetPinDirection>
	M_DIO_Void_SetPinDirection(SSD_C_PIN,OUTPUT);
    197c:	86 e1       	ldi	r24, 0x16	; 22
    197e:	61 e0       	ldi	r22, 0x01	; 1
    1980:	0e 94 f2 08 	call	0x11e4	; 0x11e4 <M_DIO_Void_SetPinDirection>
	M_DIO_Void_SetPinDirection(SSD_D_PIN,OUTPUT);
    1984:	88 e1       	ldi	r24, 0x18	; 24
    1986:	61 e0       	ldi	r22, 0x01	; 1
    1988:	0e 94 f2 08 	call	0x11e4	; 0x11e4 <M_DIO_Void_SetPinDirection>
	M_DIO_Void_SetPinDirection(SSD1_EN_PIN,OUTPUT);
    198c:	8d e0       	ldi	r24, 0x0D	; 13
    198e:	61 e0       	ldi	r22, 0x01	; 1
    1990:	0e 94 f2 08 	call	0x11e4	; 0x11e4 <M_DIO_Void_SetPinDirection>
	M_DIO_Void_SetPinDirection(SSD2_EN_PIN,OUTPUT);
    1994:	8c e0       	ldi	r24, 0x0C	; 12
    1996:	61 e0       	ldi	r22, 0x01	; 1
    1998:	0e 94 f2 08 	call	0x11e4	; 0x11e4 <M_DIO_Void_SetPinDirection>
	M_DIO_Void_SetPinDirection(SSD3_EN_PIN,OUTPUT);
    199c:	89 e1       	ldi	r24, 0x19	; 25
    199e:	61 e0       	ldi	r22, 0x01	; 1
    19a0:	0e 94 f2 08 	call	0x11e4	; 0x11e4 <M_DIO_Void_SetPinDirection>
	M_DIO_Void_SetPinDirection(SSD4_EN_PIN,OUTPUT);
    19a4:	8a e1       	ldi	r24, 0x1A	; 26
    19a6:	61 e0       	ldi	r22, 0x01	; 1
    19a8:	0e 94 f2 08 	call	0x11e4	; 0x11e4 <M_DIO_Void_SetPinDirection>
	M_DIO_Void_SetPinValue(SSD1_EN_PIN,HIGH);
    19ac:	8d e0       	ldi	r24, 0x0D	; 13
    19ae:	61 e0       	ldi	r22, 0x01	; 1
    19b0:	0e 94 87 09 	call	0x130e	; 0x130e <M_DIO_Void_SetPinValue>
	M_DIO_Void_SetPinValue(SSD2_EN_PIN,HIGH);
    19b4:	8c e0       	ldi	r24, 0x0C	; 12
    19b6:	61 e0       	ldi	r22, 0x01	; 1
    19b8:	0e 94 87 09 	call	0x130e	; 0x130e <M_DIO_Void_SetPinValue>
	M_DIO_Void_SetPinValue(SSD3_EN_PIN,HIGH);
    19bc:	89 e1       	ldi	r24, 0x19	; 25
    19be:	61 e0       	ldi	r22, 0x01	; 1
    19c0:	0e 94 87 09 	call	0x130e	; 0x130e <M_DIO_Void_SetPinValue>
	M_DIO_Void_SetPinValue(SSD4_EN_PIN,HIGH);
    19c4:	8a e1       	ldi	r24, 0x1A	; 26
    19c6:	61 e0       	ldi	r22, 0x01	; 1
    19c8:	0e 94 87 09 	call	0x130e	; 0x130e <M_DIO_Void_SetPinValue>

}
    19cc:	08 95       	ret

000019ce <H_PushButton_U8_PushButtonRead>:
}

u8   H_PushButton_U8_PushButtonRead(u8 Copy_U8_PushButton)
{
	u8 Local_U8_Reading = PUSH_BUTTON_RELEASED;
	switch(Copy_U8_PushButton)
    19ce:	81 30       	cpi	r24, 0x01	; 1
    19d0:	29 f1       	breq	.+74     	; 0x1a1c <H_PushButton_U8_PushButtonRead+0x4e>
    19d2:	81 30       	cpi	r24, 0x01	; 1
    19d4:	38 f0       	brcs	.+14     	; 0x19e4 <H_PushButton_U8_PushButtonRead+0x16>
    19d6:	82 30       	cpi	r24, 0x02	; 2
    19d8:	09 f4       	brne	.+2      	; 0x19dc <H_PushButton_U8_PushButtonRead+0xe>
    19da:	3c c0       	rjmp	.+120    	; 0x1a54 <H_PushButton_U8_PushButtonRead+0x86>
    19dc:	83 30       	cpi	r24, 0x03	; 3
    19de:	09 f0       	breq	.+2      	; 0x19e2 <H_PushButton_U8_PushButtonRead+0x14>
    19e0:	6d c0       	rjmp	.+218    	; 0x1abc <H_PushButton_U8_PushButtonRead+0xee>
    19e2:	52 c0       	rjmp	.+164    	; 0x1a88 <H_PushButton_U8_PushButtonRead+0xba>
	{
	case PUSH_BUTTON_0:
		if(M_DIO_Void_GetPinValue(PUSH_BUTTON_0_PIN) == PUSH_BUTTON_PRESSED)
    19e4:	8f e2       	ldi	r24, 0x2F	; 47
    19e6:	0e 94 1c 0a 	call	0x1438	; 0x1438 <M_DIO_Void_GetPinValue>
    19ea:	88 23       	and	r24, r24
    19ec:	09 f0       	breq	.+2      	; 0x19f0 <H_PushButton_U8_PushButtonRead+0x22>
    19ee:	66 c0       	rjmp	.+204    	; 0x1abc <H_PushButton_U8_PushButtonRead+0xee>
    19f0:	24 ef       	ldi	r18, 0xF4	; 244
    19f2:	31 e0       	ldi	r19, 0x01	; 1
    19f4:	40 e9       	ldi	r20, 0x90	; 144
    19f6:	51 e0       	ldi	r21, 0x01	; 1
    19f8:	ca 01       	movw	r24, r20
    19fa:	01 97       	sbiw	r24, 0x01	; 1
    19fc:	f1 f7       	brne	.-4      	; 0x19fa <H_PushButton_U8_PushButtonRead+0x2c>
		__ticks = (uint16_t) (__ms * 10.0);
		while(__ticks)
		{
			// wait 1/10 ms
			_delay_loop_2(((F_CPU) / 4e3) / 10);
			__ticks --;
    19fe:	21 50       	subi	r18, 0x01	; 1
    1a00:	30 40       	sbci	r19, 0x00	; 0
		__ticks = 1;
	else if (__tmp > 65535)
	{
		//	__ticks = requested delay in 1/10 ms
		__ticks = (uint16_t) (__ms * 10.0);
		while(__ticks)
    1a02:	d1 f7       	brne	.-12     	; 0x19f8 <H_PushButton_U8_PushButtonRead+0x2a>
		{
			_delay_ms(PUSH_BUTTON_DEBOUNCING_TIME);
			if(M_DIO_Void_GetPinValue(PUSH_BUTTON_0_PIN) == PUSH_BUTTON_PRESSED)
    1a04:	8f e2       	ldi	r24, 0x2F	; 47
    1a06:	0e 94 1c 0a 	call	0x1438	; 0x1438 <M_DIO_Void_GetPinValue>
    1a0a:	88 23       	and	r24, r24
    1a0c:	09 f0       	breq	.+2      	; 0x1a10 <H_PushButton_U8_PushButtonRead+0x42>
    1a0e:	56 c0       	rjmp	.+172    	; 0x1abc <H_PushButton_U8_PushButtonRead+0xee>
			{
				while(M_DIO_Void_GetPinValue(PUSH_BUTTON_0_PIN) == PUSH_BUTTON_PRESSED);
    1a10:	8f e2       	ldi	r24, 0x2F	; 47
    1a12:	0e 94 1c 0a 	call	0x1438	; 0x1438 <M_DIO_Void_GetPinValue>
    1a16:	88 23       	and	r24, r24
    1a18:	d9 f3       	breq	.-10     	; 0x1a10 <H_PushButton_U8_PushButtonRead+0x42>
    1a1a:	52 c0       	rjmp	.+164    	; 0x1ac0 <H_PushButton_U8_PushButtonRead+0xf2>
				Local_U8_Reading = PUSH_BUTTON_PRESSED;
			}
		}
		break;
	case PUSH_BUTTON_1:
		if(M_DIO_Void_GetPinValue(PUSH_BUTTON_1_PIN) == PUSH_BUTTON_PRESSED)
    1a1c:	8e e2       	ldi	r24, 0x2E	; 46
    1a1e:	0e 94 1c 0a 	call	0x1438	; 0x1438 <M_DIO_Void_GetPinValue>
    1a22:	88 23       	and	r24, r24
    1a24:	09 f0       	breq	.+2      	; 0x1a28 <H_PushButton_U8_PushButtonRead+0x5a>
    1a26:	4a c0       	rjmp	.+148    	; 0x1abc <H_PushButton_U8_PushButtonRead+0xee>
    1a28:	24 ef       	ldi	r18, 0xF4	; 244
    1a2a:	31 e0       	ldi	r19, 0x01	; 1
    1a2c:	40 e9       	ldi	r20, 0x90	; 144
    1a2e:	51 e0       	ldi	r21, 0x01	; 1
    1a30:	ca 01       	movw	r24, r20
    1a32:	01 97       	sbiw	r24, 0x01	; 1
    1a34:	f1 f7       	brne	.-4      	; 0x1a32 <H_PushButton_U8_PushButtonRead+0x64>
		{
			// wait 1/10 ms
			_delay_loop_2(((F_CPU) / 4e3) / 10);
			__ticks --;
    1a36:	21 50       	subi	r18, 0x01	; 1
    1a38:	30 40       	sbci	r19, 0x00	; 0
		__ticks = 1;
	else if (__tmp > 65535)
	{
		//	__ticks = requested delay in 1/10 ms
		__ticks = (uint16_t) (__ms * 10.0);
		while(__ticks)
    1a3a:	d1 f7       	brne	.-12     	; 0x1a30 <H_PushButton_U8_PushButtonRead+0x62>
		{
			_delay_ms(PUSH_BUTTON_DEBOUNCING_TIME);
			if(M_DIO_Void_GetPinValue(PUSH_BUTTON_1_PIN) == PUSH_BUTTON_PRESSED)
    1a3c:	8e e2       	ldi	r24, 0x2E	; 46
    1a3e:	0e 94 1c 0a 	call	0x1438	; 0x1438 <M_DIO_Void_GetPinValue>
    1a42:	88 23       	and	r24, r24
    1a44:	09 f0       	breq	.+2      	; 0x1a48 <H_PushButton_U8_PushButtonRead+0x7a>
    1a46:	3a c0       	rjmp	.+116    	; 0x1abc <H_PushButton_U8_PushButtonRead+0xee>
			{
				while(M_DIO_Void_GetPinValue(PUSH_BUTTON_1_PIN) == PUSH_BUTTON_PRESSED);
    1a48:	8e e2       	ldi	r24, 0x2E	; 46
    1a4a:	0e 94 1c 0a 	call	0x1438	; 0x1438 <M_DIO_Void_GetPinValue>
    1a4e:	88 23       	and	r24, r24
    1a50:	d9 f3       	breq	.-10     	; 0x1a48 <H_PushButton_U8_PushButtonRead+0x7a>
    1a52:	36 c0       	rjmp	.+108    	; 0x1ac0 <H_PushButton_U8_PushButtonRead+0xf2>
				Local_U8_Reading = PUSH_BUTTON_PRESSED;
			}
		}
		break;
	case PUSH_BUTTON_2:
		if(M_DIO_Void_GetPinValue(PUSH_BUTTON_2_PIN) == PUSH_BUTTON_PRESSED)
    1a54:	8d e2       	ldi	r24, 0x2D	; 45
    1a56:	0e 94 1c 0a 	call	0x1438	; 0x1438 <M_DIO_Void_GetPinValue>
    1a5a:	88 23       	and	r24, r24
    1a5c:	79 f5       	brne	.+94     	; 0x1abc <H_PushButton_U8_PushButtonRead+0xee>
    1a5e:	24 ef       	ldi	r18, 0xF4	; 244
    1a60:	31 e0       	ldi	r19, 0x01	; 1
    1a62:	40 e9       	ldi	r20, 0x90	; 144
    1a64:	51 e0       	ldi	r21, 0x01	; 1
    1a66:	ca 01       	movw	r24, r20
    1a68:	01 97       	sbiw	r24, 0x01	; 1
    1a6a:	f1 f7       	brne	.-4      	; 0x1a68 <H_PushButton_U8_PushButtonRead+0x9a>
		{
			// wait 1/10 ms
			_delay_loop_2(((F_CPU) / 4e3) / 10);
			__ticks --;
    1a6c:	21 50       	subi	r18, 0x01	; 1
    1a6e:	30 40       	sbci	r19, 0x00	; 0
		__ticks = 1;
	else if (__tmp > 65535)
	{
		//	__ticks = requested delay in 1/10 ms
		__ticks = (uint16_t) (__ms * 10.0);
		while(__ticks)
    1a70:	d1 f7       	brne	.-12     	; 0x1a66 <H_PushButton_U8_PushButtonRead+0x98>
		{
			_delay_ms(PUSH_BUTTON_DEBOUNCING_TIME);
			if(M_DIO_Void_GetPinValue(PUSH_BUTTON_2_PIN) == PUSH_BUTTON_PRESSED)
    1a72:	8d e2       	ldi	r24, 0x2D	; 45
    1a74:	0e 94 1c 0a 	call	0x1438	; 0x1438 <M_DIO_Void_GetPinValue>
    1a78:	88 23       	and	r24, r24
    1a7a:	01 f5       	brne	.+64     	; 0x1abc <H_PushButton_U8_PushButtonRead+0xee>
			{
				while(M_DIO_Void_GetPinValue(PUSH_BUTTON_2_PIN) == PUSH_BUTTON_PRESSED);
    1a7c:	8d e2       	ldi	r24, 0x2D	; 45
    1a7e:	0e 94 1c 0a 	call	0x1438	; 0x1438 <M_DIO_Void_GetPinValue>
    1a82:	88 23       	and	r24, r24
    1a84:	d9 f3       	breq	.-10     	; 0x1a7c <H_PushButton_U8_PushButtonRead+0xae>
    1a86:	1c c0       	rjmp	.+56     	; 0x1ac0 <H_PushButton_U8_PushButtonRead+0xf2>
				Local_U8_Reading = PUSH_BUTTON_PRESSED;
			}
		}
		break;
	case PUSH_BUTTON_3:
		if(M_DIO_Void_GetPinValue(PUSH_BUTTON_3_PIN) == PUSH_BUTTON_PRESSED)
    1a88:	8b e2       	ldi	r24, 0x2B	; 43
    1a8a:	0e 94 1c 0a 	call	0x1438	; 0x1438 <M_DIO_Void_GetPinValue>
    1a8e:	88 23       	and	r24, r24
    1a90:	a9 f4       	brne	.+42     	; 0x1abc <H_PushButton_U8_PushButtonRead+0xee>
    1a92:	24 ef       	ldi	r18, 0xF4	; 244
    1a94:	31 e0       	ldi	r19, 0x01	; 1
    1a96:	40 e9       	ldi	r20, 0x90	; 144
    1a98:	51 e0       	ldi	r21, 0x01	; 1
    1a9a:	ca 01       	movw	r24, r20
    1a9c:	01 97       	sbiw	r24, 0x01	; 1
    1a9e:	f1 f7       	brne	.-4      	; 0x1a9c <H_PushButton_U8_PushButtonRead+0xce>
		{
			// wait 1/10 ms
			_delay_loop_2(((F_CPU) / 4e3) / 10);
			__ticks --;
    1aa0:	21 50       	subi	r18, 0x01	; 1
    1aa2:	30 40       	sbci	r19, 0x00	; 0
		__ticks = 1;
	else if (__tmp > 65535)
	{
		//	__ticks = requested delay in 1/10 ms
		__ticks = (uint16_t) (__ms * 10.0);
		while(__ticks)
    1aa4:	d1 f7       	brne	.-12     	; 0x1a9a <H_PushButton_U8_PushButtonRead+0xcc>
		{
			_delay_ms(PUSH_BUTTON_DEBOUNCING_TIME);
			if(M_DIO_Void_GetPinValue(PUSH_BUTTON_3_PIN) == PUSH_BUTTON_PRESSED)
    1aa6:	8b e2       	ldi	r24, 0x2B	; 43
    1aa8:	0e 94 1c 0a 	call	0x1438	; 0x1438 <M_DIO_Void_GetPinValue>
    1aac:	88 23       	and	r24, r24
    1aae:	31 f4       	brne	.+12     	; 0x1abc <H_PushButton_U8_PushButtonRead+0xee>
			{
				while(M_DIO_Void_GetPinValue(PUSH_BUTTON_3_PIN) == PUSH_BUTTON_PRESSED);
    1ab0:	8b e2       	ldi	r24, 0x2B	; 43
    1ab2:	0e 94 1c 0a 	call	0x1438	; 0x1438 <M_DIO_Void_GetPinValue>
    1ab6:	88 23       	and	r24, r24
    1ab8:	d9 f3       	breq	.-10     	; 0x1ab0 <H_PushButton_U8_PushButtonRead+0xe2>
    1aba:	02 c0       	rjmp	.+4      	; 0x1ac0 <H_PushButton_U8_PushButtonRead+0xf2>
    1abc:	81 e0       	ldi	r24, 0x01	; 1
    1abe:	08 95       	ret
    1ac0:	80 e0       	ldi	r24, 0x00	; 0
		}
		break;
	default:                                                         break;
	}
	return Local_U8_Reading;
}
    1ac2:	08 95       	ret

00001ac4 <H_PushButton_Void_PushButtonInit>:
/*--------------------------------------------------------------------------------------------*/
/*   FUNCTION BODY   */
/*--------------------------------------------------------------------------------------------*/
void H_PushButton_Void_PushButtonInit(u8 Copy_U8_PushButton)
{
	switch(Copy_U8_PushButton)
    1ac4:	81 30       	cpi	r24, 0x01	; 1
    1ac6:	61 f0       	breq	.+24     	; 0x1ae0 <H_PushButton_Void_PushButtonInit+0x1c>
    1ac8:	81 30       	cpi	r24, 0x01	; 1
    1aca:	28 f0       	brcs	.+10     	; 0x1ad6 <H_PushButton_Void_PushButtonInit+0x12>
    1acc:	82 30       	cpi	r24, 0x02	; 2
    1ace:	69 f0       	breq	.+26     	; 0x1aea <H_PushButton_Void_PushButtonInit+0x26>
    1ad0:	83 30       	cpi	r24, 0x03	; 3
    1ad2:	a1 f4       	brne	.+40     	; 0x1afc <H_PushButton_Void_PushButtonInit+0x38>
    1ad4:	0f c0       	rjmp	.+30     	; 0x1af4 <H_PushButton_Void_PushButtonInit+0x30>
	{
	case PUSH_BUTTON_0: M_DIO_Void_SetPinDirection(PUSH_BUTTON_0_PIN,INPUT); break;
    1ad6:	8f e2       	ldi	r24, 0x2F	; 47
    1ad8:	60 e0       	ldi	r22, 0x00	; 0
    1ada:	0e 94 f2 08 	call	0x11e4	; 0x11e4 <M_DIO_Void_SetPinDirection>
    1ade:	08 95       	ret
	case PUSH_BUTTON_1: M_DIO_Void_SetPinDirection(PUSH_BUTTON_1_PIN,INPUT); break;
    1ae0:	8e e2       	ldi	r24, 0x2E	; 46
    1ae2:	60 e0       	ldi	r22, 0x00	; 0
    1ae4:	0e 94 f2 08 	call	0x11e4	; 0x11e4 <M_DIO_Void_SetPinDirection>
    1ae8:	08 95       	ret
	case PUSH_BUTTON_2: M_DIO_Void_SetPinDirection(PUSH_BUTTON_2_PIN,INPUT); break;
    1aea:	8d e2       	ldi	r24, 0x2D	; 45
    1aec:	60 e0       	ldi	r22, 0x00	; 0
    1aee:	0e 94 f2 08 	call	0x11e4	; 0x11e4 <M_DIO_Void_SetPinDirection>
    1af2:	08 95       	ret
	case PUSH_BUTTON_3: M_DIO_Void_SetPinDirection(PUSH_BUTTON_3_PIN,INPUT); break;
    1af4:	8b e2       	ldi	r24, 0x2B	; 43
    1af6:	60 e0       	ldi	r22, 0x00	; 0
    1af8:	0e 94 f2 08 	call	0x11e4	; 0x11e4 <M_DIO_Void_SetPinDirection>
    1afc:	08 95       	ret

00001afe <H_LED_Void_LedTog>:
/*--------------------------------------------------------------------------------------------*/
/*   FUNCTION BODY   */
/*--------------------------------------------------------------------------------------------*/
void H_LED_Void_LedTog(u8 Copy_U8_Led)
{
	switch(Copy_U8_Led)
    1afe:	82 30       	cpi	r24, 0x02	; 2
    1b00:	71 f0       	breq	.+28     	; 0x1b1e <H_LED_Void_LedTog+0x20>
    1b02:	83 30       	cpi	r24, 0x03	; 3
    1b04:	18 f4       	brcc	.+6      	; 0x1b0c <H_LED_Void_LedTog+0xe>
    1b06:	81 30       	cpi	r24, 0x01	; 1
    1b08:	a9 f4       	brne	.+42     	; 0x1b34 <H_LED_Void_LedTog+0x36>
    1b0a:	05 c0       	rjmp	.+10     	; 0x1b16 <H_LED_Void_LedTog+0x18>
    1b0c:	83 30       	cpi	r24, 0x03	; 3
    1b0e:	59 f0       	breq	.+22     	; 0x1b26 <H_LED_Void_LedTog+0x28>
    1b10:	84 30       	cpi	r24, 0x04	; 4
    1b12:	81 f4       	brne	.+32     	; 0x1b34 <H_LED_Void_LedTog+0x36>
    1b14:	0c c0       	rjmp	.+24     	; 0x1b2e <H_LED_Void_LedTog+0x30>
	{
	case LED_YEL: M_DIO_Void_TogPin(LED_YEL_PIN); break;
    1b16:	80 e1       	ldi	r24, 0x10	; 16
    1b18:	0e 94 55 0a 	call	0x14aa	; 0x14aa <M_DIO_Void_TogPin>
    1b1c:	08 95       	ret
	case LED_BLU: M_DIO_Void_TogPin(LED_BLU_PIN); break;
    1b1e:	8f e0       	ldi	r24, 0x0F	; 15
    1b20:	0e 94 55 0a 	call	0x14aa	; 0x14aa <M_DIO_Void_TogPin>
    1b24:	08 95       	ret
	case LED_GRN: M_DIO_Void_TogPin(LED_GRN_PIN); break;
    1b26:	8e e0       	ldi	r24, 0x0E	; 14
    1b28:	0e 94 55 0a 	call	0x14aa	; 0x14aa <M_DIO_Void_TogPin>
    1b2c:	08 95       	ret
	case LED_RED: M_DIO_Void_TogPin(LED_RED_PIN); break;
    1b2e:	8b e1       	ldi	r24, 0x1B	; 27
    1b30:	0e 94 55 0a 	call	0x14aa	; 0x14aa <M_DIO_Void_TogPin>
    1b34:	08 95       	ret

00001b36 <H_LED_Void_LedBlink>:
/*--------------------------------------------------------------------------------------------*/
/*   FUNCTION BODY   */
/*--------------------------------------------------------------------------------------------*/
void H_LED_Void_LedBlink(u8 Copy_U8_Led)
{
	switch(Copy_U8_Led)
    1b36:	82 30       	cpi	r24, 0x02	; 2
    1b38:	f9 f0       	breq	.+62     	; 0x1b78 <H_LED_Void_LedBlink+0x42>
    1b3a:	83 30       	cpi	r24, 0x03	; 3
    1b3c:	20 f4       	brcc	.+8      	; 0x1b46 <H_LED_Void_LedBlink+0x10>
    1b3e:	81 30       	cpi	r24, 0x01	; 1
    1b40:	09 f0       	breq	.+2      	; 0x1b44 <H_LED_Void_LedBlink+0xe>
    1b42:	52 c0       	rjmp	.+164    	; 0x1be8 <H_LED_Void_LedBlink+0xb2>
    1b44:	06 c0       	rjmp	.+12     	; 0x1b52 <H_LED_Void_LedBlink+0x1c>
    1b46:	83 30       	cpi	r24, 0x03	; 3
    1b48:	51 f1       	breq	.+84     	; 0x1b9e <H_LED_Void_LedBlink+0x68>
    1b4a:	84 30       	cpi	r24, 0x04	; 4
    1b4c:	09 f0       	breq	.+2      	; 0x1b50 <H_LED_Void_LedBlink+0x1a>
    1b4e:	4c c0       	rjmp	.+152    	; 0x1be8 <H_LED_Void_LedBlink+0xb2>
    1b50:	39 c0       	rjmp	.+114    	; 0x1bc4 <H_LED_Void_LedBlink+0x8e>
	{
	case LED_YEL:
		M_DIO_Void_SetPinValue(LED_YEL_PIN,HIGH);
    1b52:	80 e1       	ldi	r24, 0x10	; 16
    1b54:	61 e0       	ldi	r22, 0x01	; 1
    1b56:	0e 94 87 09 	call	0x130e	; 0x130e <M_DIO_Void_SetPinValue>
    1b5a:	28 eb       	ldi	r18, 0xB8	; 184
    1b5c:	3b e0       	ldi	r19, 0x0B	; 11
    1b5e:	40 e9       	ldi	r20, 0x90	; 144
    1b60:	51 e0       	ldi	r21, 0x01	; 1
    1b62:	ca 01       	movw	r24, r20
    1b64:	01 97       	sbiw	r24, 0x01	; 1
    1b66:	f1 f7       	brne	.-4      	; 0x1b64 <H_LED_Void_LedBlink+0x2e>
		{
			// wait 1/10 ms
			_delay_loop_2(((F_CPU) / 4e3) / 10);
			__ticks --;
    1b68:	21 50       	subi	r18, 0x01	; 1
    1b6a:	30 40       	sbci	r19, 0x00	; 0
		__ticks = 1;
	else if (__tmp > 65535)
	{
		//	__ticks = requested delay in 1/10 ms
		__ticks = (uint16_t) (__ms * 10.0);
		while(__ticks)
    1b6c:	d1 f7       	brne	.-12     	; 0x1b62 <H_LED_Void_LedBlink+0x2c>
		_delay_ms(LED_BLINKING_TIME);
		M_DIO_Void_SetPinValue(LED_YEL_PIN,LOW);
    1b6e:	80 e1       	ldi	r24, 0x10	; 16
    1b70:	60 e0       	ldi	r22, 0x00	; 0
    1b72:	0e 94 87 09 	call	0x130e	; 0x130e <M_DIO_Void_SetPinValue>
    1b76:	08 95       	ret
		break;
	case LED_BLU:
		M_DIO_Void_SetPinValue(LED_BLU_PIN,HIGH);
    1b78:	8f e0       	ldi	r24, 0x0F	; 15
    1b7a:	61 e0       	ldi	r22, 0x01	; 1
    1b7c:	0e 94 87 09 	call	0x130e	; 0x130e <M_DIO_Void_SetPinValue>
    1b80:	28 eb       	ldi	r18, 0xB8	; 184
    1b82:	3b e0       	ldi	r19, 0x0B	; 11
    1b84:	40 e9       	ldi	r20, 0x90	; 144
    1b86:	51 e0       	ldi	r21, 0x01	; 1
    1b88:	ca 01       	movw	r24, r20
    1b8a:	01 97       	sbiw	r24, 0x01	; 1
    1b8c:	f1 f7       	brne	.-4      	; 0x1b8a <H_LED_Void_LedBlink+0x54>
		{
			// wait 1/10 ms
			_delay_loop_2(((F_CPU) / 4e3) / 10);
			__ticks --;
    1b8e:	21 50       	subi	r18, 0x01	; 1
    1b90:	30 40       	sbci	r19, 0x00	; 0
		__ticks = 1;
	else if (__tmp > 65535)
	{
		//	__ticks = requested delay in 1/10 ms
		__ticks = (uint16_t) (__ms * 10.0);
		while(__ticks)
    1b92:	d1 f7       	brne	.-12     	; 0x1b88 <H_LED_Void_LedBlink+0x52>
		_delay_ms(LED_BLINKING_TIME);
		M_DIO_Void_SetPinValue(LED_BLU_PIN,LOW);
    1b94:	8f e0       	ldi	r24, 0x0F	; 15
    1b96:	60 e0       	ldi	r22, 0x00	; 0
    1b98:	0e 94 87 09 	call	0x130e	; 0x130e <M_DIO_Void_SetPinValue>
    1b9c:	08 95       	ret
		break;
	case LED_GRN:
		M_DIO_Void_SetPinValue(LED_GRN_PIN,HIGH);
    1b9e:	8e e0       	ldi	r24, 0x0E	; 14
    1ba0:	61 e0       	ldi	r22, 0x01	; 1
    1ba2:	0e 94 87 09 	call	0x130e	; 0x130e <M_DIO_Void_SetPinValue>
    1ba6:	28 eb       	ldi	r18, 0xB8	; 184
    1ba8:	3b e0       	ldi	r19, 0x0B	; 11
    1baa:	40 e9       	ldi	r20, 0x90	; 144
    1bac:	51 e0       	ldi	r21, 0x01	; 1
    1bae:	ca 01       	movw	r24, r20
    1bb0:	01 97       	sbiw	r24, 0x01	; 1
    1bb2:	f1 f7       	brne	.-4      	; 0x1bb0 <H_LED_Void_LedBlink+0x7a>
		{
			// wait 1/10 ms
			_delay_loop_2(((F_CPU) / 4e3) / 10);
			__ticks --;
    1bb4:	21 50       	subi	r18, 0x01	; 1
    1bb6:	30 40       	sbci	r19, 0x00	; 0
		__ticks = 1;
	else if (__tmp > 65535)
	{
		//	__ticks = requested delay in 1/10 ms
		__ticks = (uint16_t) (__ms * 10.0);
		while(__ticks)
    1bb8:	d1 f7       	brne	.-12     	; 0x1bae <H_LED_Void_LedBlink+0x78>
		_delay_ms(LED_BLINKING_TIME);
		M_DIO_Void_SetPinValue(LED_GRN_PIN,LOW);
    1bba:	8e e0       	ldi	r24, 0x0E	; 14
    1bbc:	60 e0       	ldi	r22, 0x00	; 0
    1bbe:	0e 94 87 09 	call	0x130e	; 0x130e <M_DIO_Void_SetPinValue>
    1bc2:	08 95       	ret
		break;
	case LED_RED:
		M_DIO_Void_SetPinValue(LED_RED_PIN,HIGH);
    1bc4:	8b e1       	ldi	r24, 0x1B	; 27
    1bc6:	61 e0       	ldi	r22, 0x01	; 1
    1bc8:	0e 94 87 09 	call	0x130e	; 0x130e <M_DIO_Void_SetPinValue>
    1bcc:	28 eb       	ldi	r18, 0xB8	; 184
    1bce:	3b e0       	ldi	r19, 0x0B	; 11
    1bd0:	40 e9       	ldi	r20, 0x90	; 144
    1bd2:	51 e0       	ldi	r21, 0x01	; 1
    1bd4:	ca 01       	movw	r24, r20
    1bd6:	01 97       	sbiw	r24, 0x01	; 1
    1bd8:	f1 f7       	brne	.-4      	; 0x1bd6 <H_LED_Void_LedBlink+0xa0>
		{
			// wait 1/10 ms
			_delay_loop_2(((F_CPU) / 4e3) / 10);
			__ticks --;
    1bda:	21 50       	subi	r18, 0x01	; 1
    1bdc:	30 40       	sbci	r19, 0x00	; 0
		__ticks = 1;
	else if (__tmp > 65535)
	{
		//	__ticks = requested delay in 1/10 ms
		__ticks = (uint16_t) (__ms * 10.0);
		while(__ticks)
    1bde:	d1 f7       	brne	.-12     	; 0x1bd4 <H_LED_Void_LedBlink+0x9e>
		_delay_ms(LED_BLINKING_TIME);
		M_DIO_Void_SetPinValue(LED_RED_PIN,LOW);
    1be0:	8b e1       	ldi	r24, 0x1B	; 27
    1be2:	60 e0       	ldi	r22, 0x00	; 0
    1be4:	0e 94 87 09 	call	0x130e	; 0x130e <M_DIO_Void_SetPinValue>
    1be8:	08 95       	ret

00001bea <H_LED_Void_LedOff>:
/*--------------------------------------------------------------------------------------------*/
/*   FUNCTION BODY   */
/*--------------------------------------------------------------------------------------------*/
void H_LED_Void_LedOff(u8 Copy_U8_Led)
{
	switch(Copy_U8_Led)
    1bea:	82 30       	cpi	r24, 0x02	; 2
    1bec:	79 f0       	breq	.+30     	; 0x1c0c <H_LED_Void_LedOff+0x22>
    1bee:	83 30       	cpi	r24, 0x03	; 3
    1bf0:	18 f4       	brcc	.+6      	; 0x1bf8 <H_LED_Void_LedOff+0xe>
    1bf2:	81 30       	cpi	r24, 0x01	; 1
    1bf4:	c9 f4       	brne	.+50     	; 0x1c28 <H_LED_Void_LedOff+0x3e>
    1bf6:	05 c0       	rjmp	.+10     	; 0x1c02 <H_LED_Void_LedOff+0x18>
    1bf8:	83 30       	cpi	r24, 0x03	; 3
    1bfa:	69 f0       	breq	.+26     	; 0x1c16 <H_LED_Void_LedOff+0x2c>
    1bfc:	84 30       	cpi	r24, 0x04	; 4
    1bfe:	a1 f4       	brne	.+40     	; 0x1c28 <H_LED_Void_LedOff+0x3e>
    1c00:	0f c0       	rjmp	.+30     	; 0x1c20 <H_LED_Void_LedOff+0x36>
	{
	case LED_YEL: M_DIO_Void_SetPinValue(LED_YEL_PIN,LOW); break;
    1c02:	80 e1       	ldi	r24, 0x10	; 16
    1c04:	60 e0       	ldi	r22, 0x00	; 0
    1c06:	0e 94 87 09 	call	0x130e	; 0x130e <M_DIO_Void_SetPinValue>
    1c0a:	08 95       	ret
	case LED_BLU: M_DIO_Void_SetPinValue(LED_BLU_PIN,LOW); break;
    1c0c:	8f e0       	ldi	r24, 0x0F	; 15
    1c0e:	60 e0       	ldi	r22, 0x00	; 0
    1c10:	0e 94 87 09 	call	0x130e	; 0x130e <M_DIO_Void_SetPinValue>
    1c14:	08 95       	ret
	case LED_GRN: M_DIO_Void_SetPinValue(LED_GRN_PIN,LOW); break;
    1c16:	8e e0       	ldi	r24, 0x0E	; 14
    1c18:	60 e0       	ldi	r22, 0x00	; 0
    1c1a:	0e 94 87 09 	call	0x130e	; 0x130e <M_DIO_Void_SetPinValue>
    1c1e:	08 95       	ret
	case LED_RED: M_DIO_Void_SetPinValue(LED_RED_PIN,LOW); break;
    1c20:	8b e1       	ldi	r24, 0x1B	; 27
    1c22:	60 e0       	ldi	r22, 0x00	; 0
    1c24:	0e 94 87 09 	call	0x130e	; 0x130e <M_DIO_Void_SetPinValue>
    1c28:	08 95       	ret

00001c2a <H_LED_Void_LedOn>:
/*--------------------------------------------------------------------------------------------*/
/*   FUNCTION BODY   */
/*--------------------------------------------------------------------------------------------*/
void H_LED_Void_LedOn(u8 Copy_U8_Led)
{
	switch(Copy_U8_Led)
    1c2a:	82 30       	cpi	r24, 0x02	; 2
    1c2c:	79 f0       	breq	.+30     	; 0x1c4c <H_LED_Void_LedOn+0x22>
    1c2e:	83 30       	cpi	r24, 0x03	; 3
    1c30:	18 f4       	brcc	.+6      	; 0x1c38 <H_LED_Void_LedOn+0xe>
    1c32:	81 30       	cpi	r24, 0x01	; 1
    1c34:	c9 f4       	brne	.+50     	; 0x1c68 <H_LED_Void_LedOn+0x3e>
    1c36:	05 c0       	rjmp	.+10     	; 0x1c42 <H_LED_Void_LedOn+0x18>
    1c38:	83 30       	cpi	r24, 0x03	; 3
    1c3a:	69 f0       	breq	.+26     	; 0x1c56 <H_LED_Void_LedOn+0x2c>
    1c3c:	84 30       	cpi	r24, 0x04	; 4
    1c3e:	a1 f4       	brne	.+40     	; 0x1c68 <H_LED_Void_LedOn+0x3e>
    1c40:	0f c0       	rjmp	.+30     	; 0x1c60 <H_LED_Void_LedOn+0x36>
	{
	case LED_YEL: M_DIO_Void_SetPinValue(LED_YEL_PIN,HIGH); break;
    1c42:	80 e1       	ldi	r24, 0x10	; 16
    1c44:	61 e0       	ldi	r22, 0x01	; 1
    1c46:	0e 94 87 09 	call	0x130e	; 0x130e <M_DIO_Void_SetPinValue>
    1c4a:	08 95       	ret
	case LED_BLU: M_DIO_Void_SetPinValue(LED_BLU_PIN,HIGH); break;
    1c4c:	8f e0       	ldi	r24, 0x0F	; 15
    1c4e:	61 e0       	ldi	r22, 0x01	; 1
    1c50:	0e 94 87 09 	call	0x130e	; 0x130e <M_DIO_Void_SetPinValue>
    1c54:	08 95       	ret
	case LED_GRN: M_DIO_Void_SetPinValue(LED_GRN_PIN,HIGH); break;
    1c56:	8e e0       	ldi	r24, 0x0E	; 14
    1c58:	61 e0       	ldi	r22, 0x01	; 1
    1c5a:	0e 94 87 09 	call	0x130e	; 0x130e <M_DIO_Void_SetPinValue>
    1c5e:	08 95       	ret
	case LED_RED: M_DIO_Void_SetPinValue(LED_RED_PIN,HIGH); break;
    1c60:	8b e1       	ldi	r24, 0x1B	; 27
    1c62:	61 e0       	ldi	r22, 0x01	; 1
    1c64:	0e 94 87 09 	call	0x130e	; 0x130e <M_DIO_Void_SetPinValue>
    1c68:	08 95       	ret

00001c6a <H_LED_Void_LedInit>:
/*--------------------------------------------------------------------------------------------*/
/*   FUNCTION BODY   */
/*--------------------------------------------------------------------------------------------*/
void H_LED_Void_LedInit(u8 Copy_U8_Led)
{
	switch(Copy_U8_Led)
    1c6a:	82 30       	cpi	r24, 0x02	; 2
    1c6c:	79 f0       	breq	.+30     	; 0x1c8c <H_LED_Void_LedInit+0x22>
    1c6e:	83 30       	cpi	r24, 0x03	; 3
    1c70:	18 f4       	brcc	.+6      	; 0x1c78 <H_LED_Void_LedInit+0xe>
    1c72:	81 30       	cpi	r24, 0x01	; 1
    1c74:	c9 f4       	brne	.+50     	; 0x1ca8 <H_LED_Void_LedInit+0x3e>
    1c76:	05 c0       	rjmp	.+10     	; 0x1c82 <H_LED_Void_LedInit+0x18>
    1c78:	83 30       	cpi	r24, 0x03	; 3
    1c7a:	69 f0       	breq	.+26     	; 0x1c96 <H_LED_Void_LedInit+0x2c>
    1c7c:	84 30       	cpi	r24, 0x04	; 4
    1c7e:	a1 f4       	brne	.+40     	; 0x1ca8 <H_LED_Void_LedInit+0x3e>
    1c80:	0f c0       	rjmp	.+30     	; 0x1ca0 <H_LED_Void_LedInit+0x36>
	{
	case LED_YEL: M_DIO_Void_SetPinDirection(LED_YEL_PIN,OUTPUT); break;
    1c82:	80 e1       	ldi	r24, 0x10	; 16
    1c84:	61 e0       	ldi	r22, 0x01	; 1
    1c86:	0e 94 f2 08 	call	0x11e4	; 0x11e4 <M_DIO_Void_SetPinDirection>
    1c8a:	08 95       	ret
	case LED_BLU: M_DIO_Void_SetPinDirection(LED_BLU_PIN,OUTPUT); break;
    1c8c:	8f e0       	ldi	r24, 0x0F	; 15
    1c8e:	61 e0       	ldi	r22, 0x01	; 1
    1c90:	0e 94 f2 08 	call	0x11e4	; 0x11e4 <M_DIO_Void_SetPinDirection>
    1c94:	08 95       	ret
	case LED_GRN: M_DIO_Void_SetPinDirection(LED_GRN_PIN,OUTPUT); break;
    1c96:	8e e0       	ldi	r24, 0x0E	; 14
    1c98:	61 e0       	ldi	r22, 0x01	; 1
    1c9a:	0e 94 f2 08 	call	0x11e4	; 0x11e4 <M_DIO_Void_SetPinDirection>
    1c9e:	08 95       	ret
	case LED_RED: M_DIO_Void_SetPinDirection(LED_RED_PIN,OUTPUT); break;
    1ca0:	8b e1       	ldi	r24, 0x1B	; 27
    1ca2:	61 e0       	ldi	r22, 0x01	; 1
    1ca4:	0e 94 f2 08 	call	0x11e4	; 0x11e4 <M_DIO_Void_SetPinDirection>
    1ca8:	08 95       	ret

00001caa <H_Lcd_Void_LCDWriteCommand>:

/*--------------------------------------------------------------------------------------------*/
/*   FUNCTION BODY   */
/*--------------------------------------------------------------------------------------------*/
void H_Lcd_Void_LCDWriteCommand(u8 Copy_U8_Command)
{
    1caa:	ef 92       	push	r14
    1cac:	ff 92       	push	r15
    1cae:	1f 93       	push	r17
    1cb0:	18 2f       	mov	r17, r24
	M_DIO_Void_SetPinValue(LCD_RS_PIN,LOW);
    1cb2:	8d e0       	ldi	r24, 0x0D	; 13
    1cb4:	60 e0       	ldi	r22, 0x00	; 0
    1cb6:	0e 94 87 09 	call	0x130e	; 0x130e <M_DIO_Void_SetPinValue>

	M_DIO_Void_SetPinValue(LCD_EN_PIN,HIGH);
	_delay_ms(1);
	M_DIO_Void_SetPinValue(LCD_EN_PIN,LOW);
#elif LCD_MODE   ==   _4_BIT_MODE
	M_DIO_Void_SetPinValue(LCD_D4_PIN,GET_BIT(Copy_U8_Command,4));
    1cba:	61 2f       	mov	r22, r17
    1cbc:	62 95       	swap	r22
    1cbe:	6f 70       	andi	r22, 0x0F	; 15
    1cc0:	61 70       	andi	r22, 0x01	; 1
    1cc2:	84 e1       	ldi	r24, 0x14	; 20
    1cc4:	0e 94 87 09 	call	0x130e	; 0x130e <M_DIO_Void_SetPinValue>
	M_DIO_Void_SetPinValue(LCD_D5_PIN,GET_BIT(Copy_U8_Command,5));
    1cc8:	61 2f       	mov	r22, r17
    1cca:	62 95       	swap	r22
    1ccc:	66 95       	lsr	r22
    1cce:	67 70       	andi	r22, 0x07	; 7
    1cd0:	61 70       	andi	r22, 0x01	; 1
    1cd2:	85 e1       	ldi	r24, 0x15	; 21
    1cd4:	0e 94 87 09 	call	0x130e	; 0x130e <M_DIO_Void_SetPinValue>
	M_DIO_Void_SetPinValue(LCD_D6_PIN,GET_BIT(Copy_U8_Command,6));
    1cd8:	61 2f       	mov	r22, r17
    1cda:	62 95       	swap	r22
    1cdc:	66 95       	lsr	r22
    1cde:	66 95       	lsr	r22
    1ce0:	63 70       	andi	r22, 0x03	; 3
    1ce2:	61 70       	andi	r22, 0x01	; 1
    1ce4:	86 e1       	ldi	r24, 0x16	; 22
    1ce6:	0e 94 87 09 	call	0x130e	; 0x130e <M_DIO_Void_SetPinValue>
	M_DIO_Void_SetPinValue(LCD_D7_PIN,GET_BIT(Copy_U8_Command,7));
    1cea:	61 2f       	mov	r22, r17
    1cec:	66 1f       	adc	r22, r22
    1cee:	66 27       	eor	r22, r22
    1cf0:	66 1f       	adc	r22, r22
    1cf2:	88 e1       	ldi	r24, 0x18	; 24
    1cf4:	0e 94 87 09 	call	0x130e	; 0x130e <M_DIO_Void_SetPinValue>
	M_DIO_Void_SetPinValue(LCD_EN_PIN,HIGH);
    1cf8:	8c e0       	ldi	r24, 0x0C	; 12
    1cfa:	61 e0       	ldi	r22, 0x01	; 1
    1cfc:	0e 94 87 09 	call	0x130e	; 0x130e <M_DIO_Void_SetPinValue>
    1d00:	0f 2e       	mov	r0, r31
    1d02:	f0 ea       	ldi	r31, 0xA0	; 160
    1d04:	ef 2e       	mov	r14, r31
    1d06:	ff e0       	ldi	r31, 0x0F	; 15
    1d08:	ff 2e       	mov	r15, r31
    1d0a:	f0 2d       	mov	r31, r0
    1d0c:	c7 01       	movw	r24, r14
    1d0e:	01 97       	sbiw	r24, 0x01	; 1
    1d10:	f1 f7       	brne	.-4      	; 0x1d0e <H_Lcd_Void_LCDWriteCommand+0x64>
	_delay_ms(1);
	M_DIO_Void_SetPinValue(LCD_EN_PIN,LOW);
    1d12:	8c e0       	ldi	r24, 0x0C	; 12
    1d14:	60 e0       	ldi	r22, 0x00	; 0
    1d16:	0e 94 87 09 	call	0x130e	; 0x130e <M_DIO_Void_SetPinValue>
    1d1a:	c7 01       	movw	r24, r14
    1d1c:	01 97       	sbiw	r24, 0x01	; 1
    1d1e:	f1 f7       	brne	.-4      	; 0x1d1c <H_Lcd_Void_LCDWriteCommand+0x72>
	_delay_ms(1);
	M_DIO_Void_SetPinValue(LCD_D4_PIN,GET_BIT(Copy_U8_Command,0));
    1d20:	61 2f       	mov	r22, r17
    1d22:	61 70       	andi	r22, 0x01	; 1
    1d24:	84 e1       	ldi	r24, 0x14	; 20
    1d26:	0e 94 87 09 	call	0x130e	; 0x130e <M_DIO_Void_SetPinValue>
	M_DIO_Void_SetPinValue(LCD_D5_PIN,GET_BIT(Copy_U8_Command,1));
    1d2a:	61 2f       	mov	r22, r17
    1d2c:	66 95       	lsr	r22
    1d2e:	61 70       	andi	r22, 0x01	; 1
    1d30:	85 e1       	ldi	r24, 0x15	; 21
    1d32:	0e 94 87 09 	call	0x130e	; 0x130e <M_DIO_Void_SetPinValue>
	M_DIO_Void_SetPinValue(LCD_D6_PIN,GET_BIT(Copy_U8_Command,2));
    1d36:	61 2f       	mov	r22, r17
    1d38:	66 95       	lsr	r22
    1d3a:	66 95       	lsr	r22
    1d3c:	61 70       	andi	r22, 0x01	; 1
    1d3e:	86 e1       	ldi	r24, 0x16	; 22
    1d40:	0e 94 87 09 	call	0x130e	; 0x130e <M_DIO_Void_SetPinValue>
	M_DIO_Void_SetPinValue(LCD_D7_PIN,GET_BIT(Copy_U8_Command,3));
    1d44:	16 95       	lsr	r17
    1d46:	16 95       	lsr	r17
    1d48:	16 95       	lsr	r17
    1d4a:	11 70       	andi	r17, 0x01	; 1
    1d4c:	88 e1       	ldi	r24, 0x18	; 24
    1d4e:	61 2f       	mov	r22, r17
    1d50:	0e 94 87 09 	call	0x130e	; 0x130e <M_DIO_Void_SetPinValue>
	M_DIO_Void_SetPinValue(LCD_EN_PIN,HIGH);
    1d54:	8c e0       	ldi	r24, 0x0C	; 12
    1d56:	61 e0       	ldi	r22, 0x01	; 1
    1d58:	0e 94 87 09 	call	0x130e	; 0x130e <M_DIO_Void_SetPinValue>
    1d5c:	c7 01       	movw	r24, r14
    1d5e:	01 97       	sbiw	r24, 0x01	; 1
    1d60:	f1 f7       	brne	.-4      	; 0x1d5e <H_Lcd_Void_LCDWriteCommand+0xb4>
	_delay_ms(1);
	M_DIO_Void_SetPinValue(LCD_EN_PIN,LOW);
    1d62:	8c e0       	ldi	r24, 0x0C	; 12
    1d64:	60 e0       	ldi	r22, 0x00	; 0
    1d66:	0e 94 87 09 	call	0x130e	; 0x130e <M_DIO_Void_SetPinValue>
    1d6a:	80 e2       	ldi	r24, 0x20	; 32
    1d6c:	9e e4       	ldi	r25, 0x4E	; 78
    1d6e:	01 97       	sbiw	r24, 0x01	; 1
    1d70:	f1 f7       	brne	.-4      	; 0x1d6e <H_Lcd_Void_LCDWriteCommand+0xc4>
	_delay_ms(5);
#endif
}
    1d72:	1f 91       	pop	r17
    1d74:	ff 90       	pop	r15
    1d76:	ef 90       	pop	r14
    1d78:	08 95       	ret

00001d7a <H_Lcd_Void_LCDGoTo>:

/*--------------------------------------------------------------------------------------------*/
/*   FUNCTION BODY   */
/*--------------------------------------------------------------------------------------------*/
void H_Lcd_Void_LCDGoTo(u8 Copy_U8_Row,u8 Copy_U8_Col)
{
    1d7a:	df 93       	push	r29
    1d7c:	cf 93       	push	r28
    1d7e:	00 d0       	rcall	.+0      	; 0x1d80 <H_Lcd_Void_LCDGoTo+0x6>
    1d80:	00 d0       	rcall	.+0      	; 0x1d82 <H_Lcd_Void_LCDGoTo+0x8>
    1d82:	cd b7       	in	r28, 0x3d	; 61
    1d84:	de b7       	in	r29, 0x3e	; 62
	u8 Local_U8_Arr [4] = {LCD_R0_COMMAND , LCD_R1_COMMAND , LCD_R2_COMMAND , LCD_R3_COMMAND};
    1d86:	90 e8       	ldi	r25, 0x80	; 128
    1d88:	99 83       	std	Y+1, r25	; 0x01
    1d8a:	90 ec       	ldi	r25, 0xC0	; 192
    1d8c:	9a 83       	std	Y+2, r25	; 0x02
    1d8e:	94 e9       	ldi	r25, 0x94	; 148
    1d90:	9b 83       	std	Y+3, r25	; 0x03
    1d92:	94 ed       	ldi	r25, 0xD4	; 212
    1d94:	9c 83       	std	Y+4, r25	; 0x04
	H_Lcd_Void_LCDWriteCommand(Local_U8_Arr[Copy_U8_Row] + Copy_U8_Col);
    1d96:	fe 01       	movw	r30, r28
    1d98:	e8 0f       	add	r30, r24
    1d9a:	f1 1d       	adc	r31, r1
    1d9c:	81 81       	ldd	r24, Z+1	; 0x01
    1d9e:	86 0f       	add	r24, r22
    1da0:	0e 94 55 0e 	call	0x1caa	; 0x1caa <H_Lcd_Void_LCDWriteCommand>
}
    1da4:	0f 90       	pop	r0
    1da6:	0f 90       	pop	r0
    1da8:	0f 90       	pop	r0
    1daa:	0f 90       	pop	r0
    1dac:	cf 91       	pop	r28
    1dae:	df 91       	pop	r29
    1db0:	08 95       	ret

00001db2 <H_Lcd_Void_LCDClear>:
/*--------------------------------------------------------------------------------------------*/
/*   FUNCTION BODY   */
/*--------------------------------------------------------------------------------------------*/
void H_Lcd_Void_LCDClear()
{
	H_Lcd_Void_LCDWriteCommand(LCD_CLEAR);
    1db2:	81 e0       	ldi	r24, 0x01	; 1
    1db4:	0e 94 55 0e 	call	0x1caa	; 0x1caa <H_Lcd_Void_LCDWriteCommand>
}
    1db8:	08 95       	ret

00001dba <H_Lcd_Void_LCDWriteCharacter>:

/*--------------------------------------------------------------------------------------------*/
/*   FUNCTION BODY   */
/*--------------------------------------------------------------------------------------------*/
void H_Lcd_Void_LCDWriteCharacter(u8 Copy_U8_Character)
{
    1dba:	ef 92       	push	r14
    1dbc:	ff 92       	push	r15
    1dbe:	1f 93       	push	r17
    1dc0:	18 2f       	mov	r17, r24
	M_DIO_Void_SetPinValue(LCD_RS_PIN,HIGH);
    1dc2:	8d e0       	ldi	r24, 0x0D	; 13
    1dc4:	61 e0       	ldi	r22, 0x01	; 1
    1dc6:	0e 94 87 09 	call	0x130e	; 0x130e <M_DIO_Void_SetPinValue>

	M_DIO_Void_SetPinValue(LCD_EN_PIN,HIGH);
	_delay_ms(1);
	M_DIO_Void_SetPinValue(LCD_EN_PIN,LOW);
#elif LCD_MODE   ==   _4_BIT_MODE
	M_DIO_Void_SetPinValue(LCD_D4_PIN,GET_BIT(Copy_U8_Character,4));
    1dca:	61 2f       	mov	r22, r17
    1dcc:	62 95       	swap	r22
    1dce:	6f 70       	andi	r22, 0x0F	; 15
    1dd0:	61 70       	andi	r22, 0x01	; 1
    1dd2:	84 e1       	ldi	r24, 0x14	; 20
    1dd4:	0e 94 87 09 	call	0x130e	; 0x130e <M_DIO_Void_SetPinValue>
	M_DIO_Void_SetPinValue(LCD_D5_PIN,GET_BIT(Copy_U8_Character,5));
    1dd8:	61 2f       	mov	r22, r17
    1dda:	62 95       	swap	r22
    1ddc:	66 95       	lsr	r22
    1dde:	67 70       	andi	r22, 0x07	; 7
    1de0:	61 70       	andi	r22, 0x01	; 1
    1de2:	85 e1       	ldi	r24, 0x15	; 21
    1de4:	0e 94 87 09 	call	0x130e	; 0x130e <M_DIO_Void_SetPinValue>
	M_DIO_Void_SetPinValue(LCD_D6_PIN,GET_BIT(Copy_U8_Character,6));
    1de8:	61 2f       	mov	r22, r17
    1dea:	62 95       	swap	r22
    1dec:	66 95       	lsr	r22
    1dee:	66 95       	lsr	r22
    1df0:	63 70       	andi	r22, 0x03	; 3
    1df2:	61 70       	andi	r22, 0x01	; 1
    1df4:	86 e1       	ldi	r24, 0x16	; 22
    1df6:	0e 94 87 09 	call	0x130e	; 0x130e <M_DIO_Void_SetPinValue>
	M_DIO_Void_SetPinValue(LCD_D7_PIN,GET_BIT(Copy_U8_Character,7));
    1dfa:	61 2f       	mov	r22, r17
    1dfc:	66 1f       	adc	r22, r22
    1dfe:	66 27       	eor	r22, r22
    1e00:	66 1f       	adc	r22, r22
    1e02:	88 e1       	ldi	r24, 0x18	; 24
    1e04:	0e 94 87 09 	call	0x130e	; 0x130e <M_DIO_Void_SetPinValue>
	M_DIO_Void_SetPinValue(LCD_EN_PIN,HIGH);
    1e08:	8c e0       	ldi	r24, 0x0C	; 12
    1e0a:	61 e0       	ldi	r22, 0x01	; 1
    1e0c:	0e 94 87 09 	call	0x130e	; 0x130e <M_DIO_Void_SetPinValue>
    1e10:	0f 2e       	mov	r0, r31
    1e12:	f0 ea       	ldi	r31, 0xA0	; 160
    1e14:	ef 2e       	mov	r14, r31
    1e16:	ff e0       	ldi	r31, 0x0F	; 15
    1e18:	ff 2e       	mov	r15, r31
    1e1a:	f0 2d       	mov	r31, r0
    1e1c:	c7 01       	movw	r24, r14
    1e1e:	01 97       	sbiw	r24, 0x01	; 1
    1e20:	f1 f7       	brne	.-4      	; 0x1e1e <H_Lcd_Void_LCDWriteCharacter+0x64>
	_delay_ms(1);
	M_DIO_Void_SetPinValue(LCD_EN_PIN,LOW);
    1e22:	8c e0       	ldi	r24, 0x0C	; 12
    1e24:	60 e0       	ldi	r22, 0x00	; 0
    1e26:	0e 94 87 09 	call	0x130e	; 0x130e <M_DIO_Void_SetPinValue>
    1e2a:	c7 01       	movw	r24, r14
    1e2c:	01 97       	sbiw	r24, 0x01	; 1
    1e2e:	f1 f7       	brne	.-4      	; 0x1e2c <H_Lcd_Void_LCDWriteCharacter+0x72>
	_delay_ms(1);
	M_DIO_Void_SetPinValue(LCD_D4_PIN,GET_BIT(Copy_U8_Character,0));
    1e30:	61 2f       	mov	r22, r17
    1e32:	61 70       	andi	r22, 0x01	; 1
    1e34:	84 e1       	ldi	r24, 0x14	; 20
    1e36:	0e 94 87 09 	call	0x130e	; 0x130e <M_DIO_Void_SetPinValue>
	M_DIO_Void_SetPinValue(LCD_D5_PIN,GET_BIT(Copy_U8_Character,1));
    1e3a:	61 2f       	mov	r22, r17
    1e3c:	66 95       	lsr	r22
    1e3e:	61 70       	andi	r22, 0x01	; 1
    1e40:	85 e1       	ldi	r24, 0x15	; 21
    1e42:	0e 94 87 09 	call	0x130e	; 0x130e <M_DIO_Void_SetPinValue>
	M_DIO_Void_SetPinValue(LCD_D6_PIN,GET_BIT(Copy_U8_Character,2));
    1e46:	61 2f       	mov	r22, r17
    1e48:	66 95       	lsr	r22
    1e4a:	66 95       	lsr	r22
    1e4c:	61 70       	andi	r22, 0x01	; 1
    1e4e:	86 e1       	ldi	r24, 0x16	; 22
    1e50:	0e 94 87 09 	call	0x130e	; 0x130e <M_DIO_Void_SetPinValue>
	M_DIO_Void_SetPinValue(LCD_D7_PIN,GET_BIT(Copy_U8_Character,3));
    1e54:	16 95       	lsr	r17
    1e56:	16 95       	lsr	r17
    1e58:	16 95       	lsr	r17
    1e5a:	11 70       	andi	r17, 0x01	; 1
    1e5c:	88 e1       	ldi	r24, 0x18	; 24
    1e5e:	61 2f       	mov	r22, r17
    1e60:	0e 94 87 09 	call	0x130e	; 0x130e <M_DIO_Void_SetPinValue>
	M_DIO_Void_SetPinValue(LCD_EN_PIN,HIGH);
    1e64:	8c e0       	ldi	r24, 0x0C	; 12
    1e66:	61 e0       	ldi	r22, 0x01	; 1
    1e68:	0e 94 87 09 	call	0x130e	; 0x130e <M_DIO_Void_SetPinValue>
    1e6c:	c7 01       	movw	r24, r14
    1e6e:	01 97       	sbiw	r24, 0x01	; 1
    1e70:	f1 f7       	brne	.-4      	; 0x1e6e <H_Lcd_Void_LCDWriteCharacter+0xb4>
	_delay_ms(1);
	M_DIO_Void_SetPinValue(LCD_EN_PIN,LOW);
    1e72:	8c e0       	ldi	r24, 0x0C	; 12
    1e74:	60 e0       	ldi	r22, 0x00	; 0
    1e76:	0e 94 87 09 	call	0x130e	; 0x130e <M_DIO_Void_SetPinValue>
    1e7a:	80 e2       	ldi	r24, 0x20	; 32
    1e7c:	9e e4       	ldi	r25, 0x4E	; 78
    1e7e:	01 97       	sbiw	r24, 0x01	; 1
    1e80:	f1 f7       	brne	.-4      	; 0x1e7e <H_Lcd_Void_LCDWriteCharacter+0xc4>
	_delay_ms(5);
#endif
}
    1e82:	1f 91       	pop	r17
    1e84:	ff 90       	pop	r15
    1e86:	ef 90       	pop	r14
    1e88:	08 95       	ret

00001e8a <H_Lcd_Void_LCDWriteNumber>:

/*--------------------------------------------------------------------------------------------*/
/*   FUNCTION BODY   */
/*--------------------------------------------------------------------------------------------*/
void H_Lcd_Void_LCDWriteNumber(s32 Copy_S32_Number)
{
    1e8a:	af 92       	push	r10
    1e8c:	bf 92       	push	r11
    1e8e:	cf 92       	push	r12
    1e90:	df 92       	push	r13
    1e92:	ef 92       	push	r14
    1e94:	ff 92       	push	r15
    1e96:	0f 93       	push	r16
    1e98:	df 93       	push	r29
    1e9a:	cf 93       	push	r28
    1e9c:	cd b7       	in	r28, 0x3d	; 61
    1e9e:	de b7       	in	r29, 0x3e	; 62
    1ea0:	2c 97       	sbiw	r28, 0x0c	; 12
    1ea2:	0f b6       	in	r0, 0x3f	; 63
    1ea4:	f8 94       	cli
    1ea6:	de bf       	out	0x3e, r29	; 62
    1ea8:	0f be       	out	0x3f, r0	; 63
    1eaa:	cd bf       	out	0x3d, r28	; 61
    1eac:	6b 01       	movw	r12, r22
    1eae:	7c 01       	movw	r14, r24
	s8 Local_S8_Counter = 0;
	u8 Local_U8_Arr[10] = {0};
	if(Copy_S32_Number < 0)
    1eb0:	99 23       	and	r25, r25
    1eb2:	5c f4       	brge	.+22     	; 0x1eca <H_Lcd_Void_LCDWriteNumber+0x40>
	{
		Copy_S32_Number = Copy_S32_Number * -1;
    1eb4:	f0 94       	com	r15
    1eb6:	e0 94       	com	r14
    1eb8:	d0 94       	com	r13
    1eba:	c0 94       	com	r12
    1ebc:	c1 1c       	adc	r12, r1
    1ebe:	d1 1c       	adc	r13, r1
    1ec0:	e1 1c       	adc	r14, r1
    1ec2:	f1 1c       	adc	r15, r1
		H_Lcd_Void_LCDWriteCharacter('-');
    1ec4:	8d e2       	ldi	r24, 0x2D	; 45
    1ec6:	0e 94 dd 0e 	call	0x1dba	; 0x1dba <H_Lcd_Void_LCDWriteCharacter>
/*   FUNCTION BODY   */
/*--------------------------------------------------------------------------------------------*/
void H_Lcd_Void_LCDWriteNumber(s32 Copy_S32_Number)
{
	s8 Local_S8_Counter = 0;
	u8 Local_U8_Arr[10] = {0};
    1eca:	fe 01       	movw	r30, r28
    1ecc:	31 96       	adiw	r30, 0x01	; 1
    1ece:	8a e0       	ldi	r24, 0x0A	; 10
    1ed0:	df 01       	movw	r26, r30
    1ed2:	1d 92       	st	X+, r1
    1ed4:	8a 95       	dec	r24
    1ed6:	e9 f7       	brne	.-6      	; 0x1ed2 <H_Lcd_Void_LCDWriteNumber+0x48>
    1ed8:	00 e0       	ldi	r16, 0x00	; 0
		H_Lcd_Void_LCDWriteCharacter('-');
	}

	do
	{
		Local_U8_Arr[Local_S8_Counter] = Copy_S32_Number % 10;
    1eda:	5f 01       	movw	r10, r30
    1edc:	80 2f       	mov	r24, r16
    1ede:	99 27       	eor	r25, r25
    1ee0:	87 fd       	sbrc	r24, 7
    1ee2:	90 95       	com	r25
    1ee4:	f5 01       	movw	r30, r10
    1ee6:	e8 0f       	add	r30, r24
    1ee8:	f9 1f       	adc	r31, r25
    1eea:	fc 87       	std	Y+12, r31	; 0x0c
    1eec:	eb 87       	std	Y+11, r30	; 0x0b
    1eee:	c7 01       	movw	r24, r14
    1ef0:	b6 01       	movw	r22, r12
    1ef2:	2a e0       	ldi	r18, 0x0A	; 10
    1ef4:	30 e0       	ldi	r19, 0x00	; 0
    1ef6:	40 e0       	ldi	r20, 0x00	; 0
    1ef8:	50 e0       	ldi	r21, 0x00	; 0
    1efa:	0e 94 f7 11 	call	0x23ee	; 0x23ee <__divmodsi4>
    1efe:	ab 85       	ldd	r26, Y+11	; 0x0b
    1f00:	bc 85       	ldd	r27, Y+12	; 0x0c
    1f02:	6c 93       	st	X, r22
		Copy_S32_Number                = Copy_S32_Number / 10;
    1f04:	c7 01       	movw	r24, r14
    1f06:	b6 01       	movw	r22, r12
    1f08:	2a e0       	ldi	r18, 0x0A	; 10
    1f0a:	30 e0       	ldi	r19, 0x00	; 0
    1f0c:	40 e0       	ldi	r20, 0x00	; 0
    1f0e:	50 e0       	ldi	r21, 0x00	; 0
    1f10:	0e 94 f7 11 	call	0x23ee	; 0x23ee <__divmodsi4>
    1f14:	82 2f       	mov	r24, r18
    1f16:	93 2f       	mov	r25, r19
    1f18:	a4 2f       	mov	r26, r20
    1f1a:	b5 2f       	mov	r27, r21
    1f1c:	6c 01       	movw	r12, r24
    1f1e:	7d 01       	movw	r14, r26
		Local_S8_Counter++;
    1f20:	0f 5f       	subi	r16, 0xFF	; 255
	}while(Copy_S32_Number != 0);
    1f22:	c1 14       	cp	r12, r1
    1f24:	d1 04       	cpc	r13, r1
    1f26:	e1 04       	cpc	r14, r1
    1f28:	f1 04       	cpc	r15, r1
    1f2a:	c1 f6       	brne	.-80     	; 0x1edc <H_Lcd_Void_LCDWriteNumber+0x52>

	while(Local_S8_Counter > 0)
    1f2c:	10 16       	cp	r1, r16
    1f2e:	94 f4       	brge	.+36     	; 0x1f54 <H_Lcd_Void_LCDWriteNumber+0xca>
	{
		H_Lcd_Void_LCDWriteCharacter(Local_U8_Arr[--Local_S8_Counter] + 48);
    1f30:	7e 01       	movw	r14, r28
    1f32:	08 94       	sec
    1f34:	e1 1c       	adc	r14, r1
    1f36:	f1 1c       	adc	r15, r1
    1f38:	01 50       	subi	r16, 0x01	; 1
    1f3a:	80 2f       	mov	r24, r16
    1f3c:	99 27       	eor	r25, r25
    1f3e:	87 fd       	sbrc	r24, 7
    1f40:	90 95       	com	r25
    1f42:	f7 01       	movw	r30, r14
    1f44:	e8 0f       	add	r30, r24
    1f46:	f9 1f       	adc	r31, r25
    1f48:	80 81       	ld	r24, Z
    1f4a:	80 5d       	subi	r24, 0xD0	; 208
    1f4c:	0e 94 dd 0e 	call	0x1dba	; 0x1dba <H_Lcd_Void_LCDWriteCharacter>
		Local_U8_Arr[Local_S8_Counter] = Copy_S32_Number % 10;
		Copy_S32_Number                = Copy_S32_Number / 10;
		Local_S8_Counter++;
	}while(Copy_S32_Number != 0);

	while(Local_S8_Counter > 0)
    1f50:	10 16       	cp	r1, r16
    1f52:	94 f3       	brlt	.-28     	; 0x1f38 <H_Lcd_Void_LCDWriteNumber+0xae>
	{
		H_Lcd_Void_LCDWriteCharacter(Local_U8_Arr[--Local_S8_Counter] + 48);
	}
}
    1f54:	2c 96       	adiw	r28, 0x0c	; 12
    1f56:	0f b6       	in	r0, 0x3f	; 63
    1f58:	f8 94       	cli
    1f5a:	de bf       	out	0x3e, r29	; 62
    1f5c:	0f be       	out	0x3f, r0	; 63
    1f5e:	cd bf       	out	0x3d, r28	; 61
    1f60:	cf 91       	pop	r28
    1f62:	df 91       	pop	r29
    1f64:	0f 91       	pop	r16
    1f66:	ff 90       	pop	r15
    1f68:	ef 90       	pop	r14
    1f6a:	df 90       	pop	r13
    1f6c:	cf 90       	pop	r12
    1f6e:	bf 90       	pop	r11
    1f70:	af 90       	pop	r10
    1f72:	08 95       	ret

00001f74 <H_Lcd_Void_LCDWriteString>:

/*--------------------------------------------------------------------------------------------*/
/*   FUNCTION BODY   */
/*--------------------------------------------------------------------------------------------*/
void H_Lcd_Void_LCDWriteString(u8*Copy_U8_Ptr)
{
    1f74:	1f 93       	push	r17
    1f76:	cf 93       	push	r28
    1f78:	df 93       	push	r29
    1f7a:	ec 01       	movw	r28, r24
	u8 Local_U8_Counter = 0;
	while(Copy_U8_Ptr[Local_U8_Counter] != NULL)
    1f7c:	88 81       	ld	r24, Y
    1f7e:	88 23       	and	r24, r24
    1f80:	51 f0       	breq	.+20     	; 0x1f96 <H_Lcd_Void_LCDWriteString+0x22>
    1f82:	10 e0       	ldi	r17, 0x00	; 0
	{
		H_Lcd_Void_LCDWriteCharacter(Copy_U8_Ptr[Local_U8_Counter]);
    1f84:	0e 94 dd 0e 	call	0x1dba	; 0x1dba <H_Lcd_Void_LCDWriteCharacter>
		Local_U8_Counter++;
    1f88:	1f 5f       	subi	r17, 0xFF	; 255
/*   FUNCTION BODY   */
/*--------------------------------------------------------------------------------------------*/
void H_Lcd_Void_LCDWriteString(u8*Copy_U8_Ptr)
{
	u8 Local_U8_Counter = 0;
	while(Copy_U8_Ptr[Local_U8_Counter] != NULL)
    1f8a:	fe 01       	movw	r30, r28
    1f8c:	e1 0f       	add	r30, r17
    1f8e:	f1 1d       	adc	r31, r1
    1f90:	80 81       	ld	r24, Z
    1f92:	88 23       	and	r24, r24
    1f94:	b9 f7       	brne	.-18     	; 0x1f84 <H_Lcd_Void_LCDWriteString+0x10>
	{
		H_Lcd_Void_LCDWriteCharacter(Copy_U8_Ptr[Local_U8_Counter]);
		Local_U8_Counter++;
	}
}
    1f96:	df 91       	pop	r29
    1f98:	cf 91       	pop	r28
    1f9a:	1f 91       	pop	r17
    1f9c:	08 95       	ret

00001f9e <H_Lcd_Void_LCDInit>:

	H_Lcd_Void_LCDWriteCommand(LCD_8_BIT_MODE_COMMAND);
	H_Lcd_Void_LCDWriteCommand(LCD_DISPLAY_ON_COMMAND);
	H_Lcd_Void_LCDWriteCommand(LCD_RETURN_HOME_COMMAND);
#elif LCD_MODE   ==   _4_BIT_MODE
	M_DIO_Void_SetPinDirection(LCD_D4_PIN,OUTPUT);
    1f9e:	84 e1       	ldi	r24, 0x14	; 20
    1fa0:	61 e0       	ldi	r22, 0x01	; 1
    1fa2:	0e 94 f2 08 	call	0x11e4	; 0x11e4 <M_DIO_Void_SetPinDirection>
	M_DIO_Void_SetPinDirection(LCD_D5_PIN,OUTPUT);
    1fa6:	85 e1       	ldi	r24, 0x15	; 21
    1fa8:	61 e0       	ldi	r22, 0x01	; 1
    1faa:	0e 94 f2 08 	call	0x11e4	; 0x11e4 <M_DIO_Void_SetPinDirection>
	M_DIO_Void_SetPinDirection(LCD_D6_PIN,OUTPUT);
    1fae:	86 e1       	ldi	r24, 0x16	; 22
    1fb0:	61 e0       	ldi	r22, 0x01	; 1
    1fb2:	0e 94 f2 08 	call	0x11e4	; 0x11e4 <M_DIO_Void_SetPinDirection>
	M_DIO_Void_SetPinDirection(LCD_D7_PIN,OUTPUT);
    1fb6:	88 e1       	ldi	r24, 0x18	; 24
    1fb8:	61 e0       	ldi	r22, 0x01	; 1
    1fba:	0e 94 f2 08 	call	0x11e4	; 0x11e4 <M_DIO_Void_SetPinDirection>
	M_DIO_Void_SetPinDirection(LCD_RS_PIN,OUTPUT);
    1fbe:	8d e0       	ldi	r24, 0x0D	; 13
    1fc0:	61 e0       	ldi	r22, 0x01	; 1
    1fc2:	0e 94 f2 08 	call	0x11e4	; 0x11e4 <M_DIO_Void_SetPinDirection>
	M_DIO_Void_SetPinDirection(LCD_EN_PIN,OUTPUT);
    1fc6:	8c e0       	ldi	r24, 0x0C	; 12
    1fc8:	61 e0       	ldi	r22, 0x01	; 1
    1fca:	0e 94 f2 08 	call	0x11e4	; 0x11e4 <M_DIO_Void_SetPinDirection>

	H_Lcd_Void_LCDWriteCommand(LCD_4_BIT_MODE_COMMAND_1);
    1fce:	83 e3       	ldi	r24, 0x33	; 51
    1fd0:	0e 94 55 0e 	call	0x1caa	; 0x1caa <H_Lcd_Void_LCDWriteCommand>
	H_Lcd_Void_LCDWriteCommand(LCD_4_BIT_MODE_COMMAND_2);
    1fd4:	82 e3       	ldi	r24, 0x32	; 50
    1fd6:	0e 94 55 0e 	call	0x1caa	; 0x1caa <H_Lcd_Void_LCDWriteCommand>
	H_Lcd_Void_LCDWriteCommand(LCD_4_BIT_MODE_COMMAND_3);
    1fda:	88 e2       	ldi	r24, 0x28	; 40
    1fdc:	0e 94 55 0e 	call	0x1caa	; 0x1caa <H_Lcd_Void_LCDWriteCommand>
	H_Lcd_Void_LCDWriteCommand(LCD_DISPLAY_ON_COMMAND);
    1fe0:	8c e0       	ldi	r24, 0x0C	; 12
    1fe2:	0e 94 55 0e 	call	0x1caa	; 0x1caa <H_Lcd_Void_LCDWriteCommand>
	H_Lcd_Void_LCDWriteCommand(LCD_RETURN_HOME_COMMAND);
    1fe6:	82 e0       	ldi	r24, 0x02	; 2
    1fe8:	0e 94 55 0e 	call	0x1caa	; 0x1caa <H_Lcd_Void_LCDWriteCommand>
	H_Lcd_Void_LCDWriteCommand(LCD_CLEAR);
    1fec:	81 e0       	ldi	r24, 0x01	; 1
    1fee:	0e 94 55 0e 	call	0x1caa	; 0x1caa <H_Lcd_Void_LCDWriteCommand>


#endif
}
    1ff2:	08 95       	ret

00001ff4 <H_KeyPad_U8_KeyPadRead>:

/*============================================================================================*/
/*   FUNCTION BODY   */
/*============================================================================================*/
u8   H_KeyPad_U8_KeyPadRead(void)
{
    1ff4:	2f 92       	push	r2
    1ff6:	3f 92       	push	r3
    1ff8:	4f 92       	push	r4
    1ffa:	5f 92       	push	r5
    1ffc:	6f 92       	push	r6
    1ffe:	7f 92       	push	r7
    2000:	8f 92       	push	r8
    2002:	9f 92       	push	r9
    2004:	af 92       	push	r10
    2006:	bf 92       	push	r11
    2008:	cf 92       	push	r12
    200a:	df 92       	push	r13
    200c:	ef 92       	push	r14
    200e:	ff 92       	push	r15
    2010:	0f 93       	push	r16
    2012:	1f 93       	push	r17
    2014:	df 93       	push	r29
    2016:	cf 93       	push	r28
    2018:	cd b7       	in	r28, 0x3d	; 61
    201a:	de b7       	in	r29, 0x3e	; 62
    201c:	69 97       	sbiw	r28, 0x19	; 25
    201e:	0f b6       	in	r0, 0x3f	; 63
    2020:	f8 94       	cli
    2022:	de bf       	out	0x3e, r29	; 62
    2024:	0f be       	out	0x3f, r0	; 63
    2026:	cd bf       	out	0x3d, r28	; 61
	u8 Local_U8_KeypadRowPins[4] = { KEYPAD_R0_PIN , KEYPAD_R1_PIN , KEYPAD_R2_PIN , KEYPAD_R3_PIN };
    2028:	83 e2       	ldi	r24, 0x23	; 35
    202a:	89 83       	std	Y+1, r24	; 0x01
    202c:	82 e2       	ldi	r24, 0x22	; 34
    202e:	8a 83       	std	Y+2, r24	; 0x02
    2030:	81 e2       	ldi	r24, 0x21	; 33
    2032:	8b 83       	std	Y+3, r24	; 0x03
    2034:	80 e2       	ldi	r24, 0x20	; 32
    2036:	8c 83       	std	Y+4, r24	; 0x04
	u8 Local_U8_KeypadColPins[4] = { KEYPAD_C0_PIN , KEYPAD_C1_PIN , KEYPAD_C2_PIN , KEYPAD_C3_PIN };
    2038:	8f e2       	ldi	r24, 0x2F	; 47
    203a:	8d 83       	std	Y+5, r24	; 0x05
    203c:	8e e2       	ldi	r24, 0x2E	; 46
    203e:	8e 83       	std	Y+6, r24	; 0x06
    2040:	8d e2       	ldi	r24, 0x2D	; 45
    2042:	8f 83       	std	Y+7, r24	; 0x07
    2044:	8b e2       	ldi	r24, 0x2B	; 43
    2046:	88 87       	std	Y+8, r24	; 0x08
#if   KEYPAD_MODEL   ==   KEYPAD_MODEL_A
	u8 Local_U8_KeypadValue [4][4] = {{ '1' , '2' , '3' , 'A' },
			                          { '4' , '5' , '6' , 'B' },
							          { '7' , '8' , '9' , 'C' },
						         	  { '*' , '0' , '#' , 'D' }};
    2048:	de 01       	movw	r26, r28
    204a:	19 96       	adiw	r26, 0x09	; 9
    204c:	e8 e6       	ldi	r30, 0x68	; 104
    204e:	f1 e0       	ldi	r31, 0x01	; 1
    2050:	80 e1       	ldi	r24, 0x10	; 16
    2052:	01 90       	ld	r0, Z+
    2054:	0d 92       	st	X+, r0
    2056:	81 50       	subi	r24, 0x01	; 1
    2058:	e1 f7       	brne	.-8      	; 0x2052 <H_KeyPad_U8_KeyPadRead+0x5e>
    205a:	81 e0       	ldi	r24, 0x01	; 1
    205c:	89 8f       	std	Y+25, r24	; 0x19
    205e:	aa 24       	eor	r10, r10
    2060:	bb 24       	eor	r11, r11
	for(Local_U8_RowCounter = 0 ; Local_U8_RowCounter <= 3 ; Local_U8_RowCounter++)
	{
		M_DIO_Void_SetPinValue(Local_U8_KeypadRowPins[Local_U8_RowCounter],LOW);
		for(Local_U8_ColCounter = 0 ; Local_U8_ColCounter <= 3 ; Local_U8_ColCounter++)
		{
			if(M_DIO_Void_GetPinValue(Local_U8_KeypadColPins[Local_U8_ColCounter]) == KEYPAD_PRESSED)
    2062:	0f 2e       	mov	r0, r31
    2064:	f5 e0       	ldi	r31, 0x05	; 5
    2066:	6f 2e       	mov	r6, r31
    2068:	77 24       	eor	r7, r7
    206a:	f0 2d       	mov	r31, r0
    206c:	6c 0e       	add	r6, r28
    206e:	7d 1e       	adc	r7, r29
    2070:	00 e9       	ldi	r16, 0x90	; 144
    2072:	11 e0       	ldi	r17, 0x01	; 1
    2074:	c8 01       	movw	r24, r16
    2076:	30 2e       	mov	r3, r16
    2078:	29 2e       	mov	r2, r25
	u8 Local_U8_KeypadColPins[4] = { KEYPAD_C0_PIN , KEYPAD_C1_PIN , KEYPAD_C2_PIN , KEYPAD_C3_PIN };
#if   KEYPAD_MODEL   ==   KEYPAD_MODEL_A
	u8 Local_U8_KeypadValue [4][4] = {{ '1' , '2' , '3' , 'A' },
			                          { '4' , '5' , '6' , 'B' },
							          { '7' , '8' , '9' , 'C' },
						         	  { '*' , '0' , '#' , 'D' }};
    207a:	25 01       	movw	r4, r10
	u8 Local_U8_Reading    = KEYPAD_RELEASED;
	u8 Local_U8_RowCounter = 0;
	u8 Local_U8_ColCounter = 0;
	for(Local_U8_RowCounter = 0 ; Local_U8_RowCounter <= 3 ; Local_U8_RowCounter++)
	{
		M_DIO_Void_SetPinValue(Local_U8_KeypadRowPins[Local_U8_RowCounter],LOW);
    207c:	e1 e0       	ldi	r30, 0x01	; 1
    207e:	f0 e0       	ldi	r31, 0x00	; 0
    2080:	ec 0f       	add	r30, r28
    2082:	fd 1f       	adc	r31, r29
    2084:	ea 0d       	add	r30, r10
    2086:	fb 1d       	adc	r31, r11
    2088:	c0 80       	ld	r12, Z
    208a:	8c 2d       	mov	r24, r12
    208c:	60 e0       	ldi	r22, 0x00	; 0
    208e:	0e 94 87 09 	call	0x130e	; 0x130e <M_DIO_Void_SetPinValue>
    2092:	ee 24       	eor	r14, r14
    2094:	ff 24       	eor	r15, r15
    2096:	47 01       	movw	r8, r14
		for(Local_U8_ColCounter = 0 ; Local_U8_ColCounter <= 3 ; Local_U8_ColCounter++)
		{
			if(M_DIO_Void_GetPinValue(Local_U8_KeypadColPins[Local_U8_ColCounter]) == KEYPAD_PRESSED)
    2098:	f3 01       	movw	r30, r6
    209a:	ee 0d       	add	r30, r14
    209c:	ff 1d       	adc	r31, r15
    209e:	d0 80       	ld	r13, Z
    20a0:	8d 2d       	mov	r24, r13
    20a2:	0e 94 1c 0a 	call	0x1438	; 0x1438 <M_DIO_Void_GetPinValue>
    20a6:	88 23       	and	r24, r24
    20a8:	09 f5       	brne	.+66     	; 0x20ec <H_KeyPad_U8_KeyPadRead+0xf8>
    20aa:	83 2d       	mov	r24, r3
    20ac:	92 2d       	mov	r25, r2
    20ae:	f8 01       	movw	r30, r16
    20b0:	31 97       	sbiw	r30, 0x01	; 1
    20b2:	f1 f7       	brne	.-4      	; 0x20b0 <H_KeyPad_U8_KeyPadRead+0xbc>
		{
			// wait 1/10 ms
			_delay_loop_2(((F_CPU) / 4e3) / 10);
			__ticks --;
    20b4:	01 97       	sbiw	r24, 0x01	; 1
		__ticks = 1;
	else if (__tmp > 65535)
	{
		//	__ticks = requested delay in 1/10 ms
		__ticks = (uint16_t) (__ms * 10.0);
		while(__ticks)
    20b6:	d9 f7       	brne	.-10     	; 0x20ae <H_KeyPad_U8_KeyPadRead+0xba>
			{
				_delay_ms(KEYPAD_DEBOUNCING_TIME);
				if(M_DIO_Void_GetPinValue(Local_U8_KeypadColPins[Local_U8_ColCounter]) == KEYPAD_PRESSED)
    20b8:	8d 2d       	mov	r24, r13
    20ba:	0e 94 1c 0a 	call	0x1438	; 0x1438 <M_DIO_Void_GetPinValue>
    20be:	88 23       	and	r24, r24
    20c0:	a9 f4       	brne	.+42     	; 0x20ec <H_KeyPad_U8_KeyPadRead+0xf8>
				{
					while(M_DIO_Void_GetPinValue(Local_U8_KeypadColPins[Local_U8_ColCounter]) == KEYPAD_PRESSED);
    20c2:	8d 2d       	mov	r24, r13
    20c4:	0e 94 1c 0a 	call	0x1438	; 0x1438 <M_DIO_Void_GetPinValue>
    20c8:	88 23       	and	r24, r24
    20ca:	d9 f3       	breq	.-10     	; 0x20c2 <H_KeyPad_U8_KeyPadRead+0xce>
					Local_U8_Reading = Local_U8_KeypadValue[Local_U8_RowCounter][Local_U8_ColCounter];
    20cc:	c2 01       	movw	r24, r4
    20ce:	88 0f       	add	r24, r24
    20d0:	99 1f       	adc	r25, r25
    20d2:	88 0f       	add	r24, r24
    20d4:	99 1f       	adc	r25, r25
    20d6:	e1 e0       	ldi	r30, 0x01	; 1
    20d8:	f0 e0       	ldi	r31, 0x00	; 0
    20da:	ec 0f       	add	r30, r28
    20dc:	fd 1f       	adc	r31, r29
    20de:	e8 0f       	add	r30, r24
    20e0:	f9 1f       	adc	r31, r25
    20e2:	e8 0d       	add	r30, r8
    20e4:	f9 1d       	adc	r31, r9
    20e6:	80 85       	ldd	r24, Z+8	; 0x08
    20e8:	89 8f       	std	Y+25, r24	; 0x19
    20ea:	07 c0       	rjmp	.+14     	; 0x20fa <H_KeyPad_U8_KeyPadRead+0x106>
					break;
    20ec:	08 94       	sec
    20ee:	e1 1c       	adc	r14, r1
    20f0:	f1 1c       	adc	r15, r1
	u8 Local_U8_RowCounter = 0;
	u8 Local_U8_ColCounter = 0;
	for(Local_U8_RowCounter = 0 ; Local_U8_RowCounter <= 3 ; Local_U8_RowCounter++)
	{
		M_DIO_Void_SetPinValue(Local_U8_KeypadRowPins[Local_U8_RowCounter],LOW);
		for(Local_U8_ColCounter = 0 ; Local_U8_ColCounter <= 3 ; Local_U8_ColCounter++)
    20f2:	84 e0       	ldi	r24, 0x04	; 4
    20f4:	e8 16       	cp	r14, r24
    20f6:	f1 04       	cpc	r15, r1
    20f8:	71 f6       	brne	.-100    	; 0x2096 <H_KeyPad_U8_KeyPadRead+0xa2>
					break;
				}

			}
		}
		M_DIO_Void_SetPinValue(Local_U8_KeypadRowPins[Local_U8_RowCounter],HIGH);
    20fa:	8c 2d       	mov	r24, r12
    20fc:	61 e0       	ldi	r22, 0x01	; 1
    20fe:	0e 94 87 09 	call	0x130e	; 0x130e <M_DIO_Void_SetPinValue>
    2102:	08 94       	sec
    2104:	a1 1c       	adc	r10, r1
    2106:	b1 1c       	adc	r11, r1
							          { 'C' , '0' , '=' , '/' }};
#endif
	u8 Local_U8_Reading    = KEYPAD_RELEASED;
	u8 Local_U8_RowCounter = 0;
	u8 Local_U8_ColCounter = 0;
	for(Local_U8_RowCounter = 0 ; Local_U8_RowCounter <= 3 ; Local_U8_RowCounter++)
    2108:	84 e0       	ldi	r24, 0x04	; 4
    210a:	a8 16       	cp	r10, r24
    210c:	b1 04       	cpc	r11, r1
    210e:	09 f0       	breq	.+2      	; 0x2112 <H_KeyPad_U8_KeyPadRead+0x11e>
    2110:	b4 cf       	rjmp	.-152    	; 0x207a <H_KeyPad_U8_KeyPadRead+0x86>
			}
		}
		M_DIO_Void_SetPinValue(Local_U8_KeypadRowPins[Local_U8_RowCounter],HIGH);
	}
return Local_U8_Reading;
}
    2112:	89 8d       	ldd	r24, Y+25	; 0x19
    2114:	69 96       	adiw	r28, 0x19	; 25
    2116:	0f b6       	in	r0, 0x3f	; 63
    2118:	f8 94       	cli
    211a:	de bf       	out	0x3e, r29	; 62
    211c:	0f be       	out	0x3f, r0	; 63
    211e:	cd bf       	out	0x3d, r28	; 61
    2120:	cf 91       	pop	r28
    2122:	df 91       	pop	r29
    2124:	1f 91       	pop	r17
    2126:	0f 91       	pop	r16
    2128:	ff 90       	pop	r15
    212a:	ef 90       	pop	r14
    212c:	df 90       	pop	r13
    212e:	cf 90       	pop	r12
    2130:	bf 90       	pop	r11
    2132:	af 90       	pop	r10
    2134:	9f 90       	pop	r9
    2136:	8f 90       	pop	r8
    2138:	7f 90       	pop	r7
    213a:	6f 90       	pop	r6
    213c:	5f 90       	pop	r5
    213e:	4f 90       	pop	r4
    2140:	3f 90       	pop	r3
    2142:	2f 90       	pop	r2
    2144:	08 95       	ret

00002146 <H_KeyPad_Void_KeyPadInit>:
/*============================================================================================*/
/*   FUNCTION BODY   */
/*============================================================================================*/
void H_KeyPad_Void_KeyPadInit(void)
{
	M_DIO_Void_SetPinDirection(KEYPAD_R0_PIN,OUTPUT);
    2146:	83 e2       	ldi	r24, 0x23	; 35
    2148:	61 e0       	ldi	r22, 0x01	; 1
    214a:	0e 94 f2 08 	call	0x11e4	; 0x11e4 <M_DIO_Void_SetPinDirection>
	M_DIO_Void_SetPinDirection(KEYPAD_R1_PIN,OUTPUT);
    214e:	82 e2       	ldi	r24, 0x22	; 34
    2150:	61 e0       	ldi	r22, 0x01	; 1
    2152:	0e 94 f2 08 	call	0x11e4	; 0x11e4 <M_DIO_Void_SetPinDirection>
	M_DIO_Void_SetPinDirection(KEYPAD_R2_PIN,OUTPUT);
    2156:	81 e2       	ldi	r24, 0x21	; 33
    2158:	61 e0       	ldi	r22, 0x01	; 1
    215a:	0e 94 f2 08 	call	0x11e4	; 0x11e4 <M_DIO_Void_SetPinDirection>
	M_DIO_Void_SetPinDirection(KEYPAD_R3_PIN,OUTPUT);
    215e:	80 e2       	ldi	r24, 0x20	; 32
    2160:	61 e0       	ldi	r22, 0x01	; 1
    2162:	0e 94 f2 08 	call	0x11e4	; 0x11e4 <M_DIO_Void_SetPinDirection>

	M_DIO_Void_SetPinValue(KEYPAD_R0_PIN,HIGH);
    2166:	83 e2       	ldi	r24, 0x23	; 35
    2168:	61 e0       	ldi	r22, 0x01	; 1
    216a:	0e 94 87 09 	call	0x130e	; 0x130e <M_DIO_Void_SetPinValue>
	M_DIO_Void_SetPinValue(KEYPAD_R1_PIN,HIGH);
    216e:	82 e2       	ldi	r24, 0x22	; 34
    2170:	61 e0       	ldi	r22, 0x01	; 1
    2172:	0e 94 87 09 	call	0x130e	; 0x130e <M_DIO_Void_SetPinValue>
	M_DIO_Void_SetPinValue(KEYPAD_R2_PIN,HIGH);
    2176:	81 e2       	ldi	r24, 0x21	; 33
    2178:	61 e0       	ldi	r22, 0x01	; 1
    217a:	0e 94 87 09 	call	0x130e	; 0x130e <M_DIO_Void_SetPinValue>
	M_DIO_Void_SetPinValue(KEYPAD_R3_PIN,HIGH);
    217e:	80 e2       	ldi	r24, 0x20	; 32
    2180:	61 e0       	ldi	r22, 0x01	; 1
    2182:	0e 94 87 09 	call	0x130e	; 0x130e <M_DIO_Void_SetPinValue>

	M_DIO_Void_SetPinDirection(KEYPAD_C0_PIN,INPUT);
    2186:	8f e2       	ldi	r24, 0x2F	; 47
    2188:	60 e0       	ldi	r22, 0x00	; 0
    218a:	0e 94 f2 08 	call	0x11e4	; 0x11e4 <M_DIO_Void_SetPinDirection>
	M_DIO_Void_SetPinDirection(KEYPAD_C1_PIN,INPUT);
    218e:	8e e2       	ldi	r24, 0x2E	; 46
    2190:	60 e0       	ldi	r22, 0x00	; 0
    2192:	0e 94 f2 08 	call	0x11e4	; 0x11e4 <M_DIO_Void_SetPinDirection>
	M_DIO_Void_SetPinDirection(KEYPAD_C2_PIN,INPUT);
    2196:	8d e2       	ldi	r24, 0x2D	; 45
    2198:	60 e0       	ldi	r22, 0x00	; 0
    219a:	0e 94 f2 08 	call	0x11e4	; 0x11e4 <M_DIO_Void_SetPinDirection>
	M_DIO_Void_SetPinDirection(KEYPAD_C3_PIN,INPUT);
    219e:	8b e2       	ldi	r24, 0x2B	; 43
    21a0:	60 e0       	ldi	r22, 0x00	; 0
    21a2:	0e 94 f2 08 	call	0x11e4	; 0x11e4 <M_DIO_Void_SetPinDirection>
}
    21a6:	08 95       	ret

000021a8 <H_EEPROM_U8_EEPROMRead>:

/*============================================================================================*/
/*   FUNCTION BODY   */
/*============================================================================================*/
u8   H_EEPROM_U8_EEPROMRead(u8 Copy_U8_PageNumber,u8 Copy_U8_ByteNumber)
{
    21a8:	0f 93       	push	r16
    21aa:	1f 93       	push	r17
    21ac:	18 2f       	mov	r17, r24
    21ae:	06 2f       	mov	r16, r22
	u8 Local_U8_Data = 0;
	M_I2C_Void_StartCondition();
    21b0:	0e 94 73 08 	call	0x10e6	; 0x10e6 <M_I2C_Void_StartCondition>
	M_I2C_Void_SendSlaveAddressWrite(EEPROM_MASK | Copy_U8_PageNumber);
    21b4:	10 65       	ori	r17, 0x50	; 80
    21b6:	81 2f       	mov	r24, r17
    21b8:	0e 94 a0 08 	call	0x1140	; 0x1140 <M_I2C_Void_SendSlaveAddressWrite>
	M_I2C_Void_SendByte(Copy_U8_ByteNumber);         /*   TO SEND BYTE NUMBER   */
    21bc:	80 2f       	mov	r24, r16
    21be:	0e 94 c6 08 	call	0x118c	; 0x118c <M_I2C_Void_SendByte>
	M_I2C_Void_RepeatedStart();
    21c2:	0e 94 8e 08 	call	0x111c	; 0x111c <M_I2C_Void_RepeatedStart>
	M_I2C_Void_SendSlaveAddressRead(EEPROM_MASK | Copy_U8_PageNumber);
    21c6:	81 2f       	mov	r24, r17
    21c8:	0e 94 b1 08 	call	0x1162	; 0x1162 <M_I2C_Void_SendSlaveAddressRead>
	Local_U8_Data = M_I2C_U8_ReadByte();
    21cc:	0e 94 d9 08 	call	0x11b2	; 0x11b2 <M_I2C_U8_ReadByte>
    21d0:	18 2f       	mov	r17, r24
	M_I2C_Void_StopCondition();
    21d2:	0e 94 85 08 	call	0x110a	; 0x110a <M_I2C_Void_StopCondition>
	return Local_U8_Data;
}
    21d6:	81 2f       	mov	r24, r17
    21d8:	1f 91       	pop	r17
    21da:	0f 91       	pop	r16
    21dc:	08 95       	ret

000021de <H_EEPROM_Void_EEPROMWrite>:

/*============================================================================================*/
/*   FUNCTION BODY   */
/*============================================================================================*/
void H_EEPROM_Void_EEPROMWrite(u8 Copy_U8_PageNumber,u8 Copy_U8_ByteNumber,u8 Copy_U8_Data)
{
    21de:	ff 92       	push	r15
    21e0:	0f 93       	push	r16
    21e2:	1f 93       	push	r17
    21e4:	18 2f       	mov	r17, r24
    21e6:	06 2f       	mov	r16, r22
    21e8:	f4 2e       	mov	r15, r20
	M_I2C_Void_StartCondition();
    21ea:	0e 94 73 08 	call	0x10e6	; 0x10e6 <M_I2C_Void_StartCondition>
	M_I2C_Void_SendSlaveAddressWrite(EEPROM_MASK | Copy_U8_PageNumber);
    21ee:	81 2f       	mov	r24, r17
    21f0:	80 65       	ori	r24, 0x50	; 80
    21f2:	0e 94 a0 08 	call	0x1140	; 0x1140 <M_I2C_Void_SendSlaveAddressWrite>
	M_I2C_Void_SendByte(Copy_U8_ByteNumber);         /*   TO SEND BYTE NUMBER   */
    21f6:	80 2f       	mov	r24, r16
    21f8:	0e 94 c6 08 	call	0x118c	; 0x118c <M_I2C_Void_SendByte>
	M_I2C_Void_SendByte(Copy_U8_Data);               /*   TO SEND DATA          */
    21fc:	8f 2d       	mov	r24, r15
    21fe:	0e 94 c6 08 	call	0x118c	; 0x118c <M_I2C_Void_SendByte>
	M_I2C_Void_StopCondition();
    2202:	0e 94 85 08 	call	0x110a	; 0x110a <M_I2C_Void_StopCondition>
}
    2206:	1f 91       	pop	r17
    2208:	0f 91       	pop	r16
    220a:	ff 90       	pop	r15
    220c:	08 95       	ret

0000220e <H_EEPROM_Void_EEPROMInit>:
/*============================================================================================*/
/*   FUNCTION BODY   */
/*============================================================================================*/
void H_EEPROM_Void_EEPROMInit(void)
{
	M_I2C_Void_I2CInit();
    220e:	0e 94 6b 08 	call	0x10d6	; 0x10d6 <M_I2C_Void_I2CInit>
    2212:	28 e8       	ldi	r18, 0x88	; 136
    2214:	33 e1       	ldi	r19, 0x13	; 19
    2216:	40 e9       	ldi	r20, 0x90	; 144
    2218:	51 e0       	ldi	r21, 0x01	; 1
    221a:	ca 01       	movw	r24, r20
    221c:	01 97       	sbiw	r24, 0x01	; 1
    221e:	f1 f7       	brne	.-4      	; 0x221c <H_EEPROM_Void_EEPROMInit+0xe>
		{
			// wait 1/10 ms
			_delay_loop_2(((F_CPU) / 4e3) / 10);
			__ticks --;
    2220:	21 50       	subi	r18, 0x01	; 1
    2222:	30 40       	sbci	r19, 0x00	; 0
		__ticks = 1;
	else if (__tmp > 65535)
	{
		//	__ticks = requested delay in 1/10 ms
		__ticks = (uint16_t) (__ms * 10.0);
		while(__ticks)
    2224:	d1 f7       	brne	.-12     	; 0x221a <H_EEPROM_Void_EEPROMInit+0xc>
	_delay_ms(500);
}
    2226:	08 95       	ret

00002228 <H_Buzzer_Void_BuzzerTwice>:
/*--------------------------------------------------------------------------------------------*/
/*   FUNCTION BODY   */
/*--------------------------------------------------------------------------------------------*/
void H_Buzzer_Void_BuzzerTwice(void)
{
	M_DIO_Void_SetPinValue(BUZZER_PIN,HIGH);
    2228:	84 e2       	ldi	r24, 0x24	; 36
    222a:	61 e0       	ldi	r22, 0x01	; 1
    222c:	0e 94 87 09 	call	0x130e	; 0x130e <M_DIO_Void_SetPinValue>
    2230:	20 e2       	ldi	r18, 0x20	; 32
    2232:	33 e0       	ldi	r19, 0x03	; 3
    2234:	40 e9       	ldi	r20, 0x90	; 144
    2236:	51 e0       	ldi	r21, 0x01	; 1
    2238:	ca 01       	movw	r24, r20
    223a:	01 97       	sbiw	r24, 0x01	; 1
    223c:	f1 f7       	brne	.-4      	; 0x223a <H_Buzzer_Void_BuzzerTwice+0x12>
		{
			// wait 1/10 ms
			_delay_loop_2(((F_CPU) / 4e3) / 10);
			__ticks --;
    223e:	21 50       	subi	r18, 0x01	; 1
    2240:	30 40       	sbci	r19, 0x00	; 0
		__ticks = 1;
	else if (__tmp > 65535)
	{
		//	__ticks = requested delay in 1/10 ms
		__ticks = (uint16_t) (__ms * 10.0);
		while(__ticks)
    2242:	d1 f7       	brne	.-12     	; 0x2238 <H_Buzzer_Void_BuzzerTwice+0x10>
	_delay_ms(BUZZER_ON_TIME);
	M_DIO_Void_SetPinValue(BUZZER_PIN,LOW);
    2244:	84 e2       	ldi	r24, 0x24	; 36
    2246:	60 e0       	ldi	r22, 0x00	; 0
    2248:	0e 94 87 09 	call	0x130e	; 0x130e <M_DIO_Void_SetPinValue>
    224c:	28 e5       	ldi	r18, 0x58	; 88
    224e:	32 e0       	ldi	r19, 0x02	; 2
    2250:	40 e9       	ldi	r20, 0x90	; 144
    2252:	51 e0       	ldi	r21, 0x01	; 1
    2254:	ca 01       	movw	r24, r20
    2256:	01 97       	sbiw	r24, 0x01	; 1
    2258:	f1 f7       	brne	.-4      	; 0x2256 <H_Buzzer_Void_BuzzerTwice+0x2e>
		{
			// wait 1/10 ms
			_delay_loop_2(((F_CPU) / 4e3) / 10);
			__ticks --;
    225a:	21 50       	subi	r18, 0x01	; 1
    225c:	30 40       	sbci	r19, 0x00	; 0
		__ticks = 1;
	else if (__tmp > 65535)
	{
		//	__ticks = requested delay in 1/10 ms
		__ticks = (uint16_t) (__ms * 10.0);
		while(__ticks)
    225e:	d1 f7       	brne	.-12     	; 0x2254 <H_Buzzer_Void_BuzzerTwice+0x2c>
	_delay_ms(BUZZER_OFF_TIME);
	M_DIO_Void_SetPinValue(BUZZER_PIN,HIGH);
    2260:	84 e2       	ldi	r24, 0x24	; 36
    2262:	61 e0       	ldi	r22, 0x01	; 1
    2264:	0e 94 87 09 	call	0x130e	; 0x130e <M_DIO_Void_SetPinValue>
    2268:	20 e2       	ldi	r18, 0x20	; 32
    226a:	33 e0       	ldi	r19, 0x03	; 3
    226c:	40 e9       	ldi	r20, 0x90	; 144
    226e:	51 e0       	ldi	r21, 0x01	; 1
    2270:	ca 01       	movw	r24, r20
    2272:	01 97       	sbiw	r24, 0x01	; 1
    2274:	f1 f7       	brne	.-4      	; 0x2272 <H_Buzzer_Void_BuzzerTwice+0x4a>
		{
			// wait 1/10 ms
			_delay_loop_2(((F_CPU) / 4e3) / 10);
			__ticks --;
    2276:	21 50       	subi	r18, 0x01	; 1
    2278:	30 40       	sbci	r19, 0x00	; 0
		__ticks = 1;
	else if (__tmp > 65535)
	{
		//	__ticks = requested delay in 1/10 ms
		__ticks = (uint16_t) (__ms * 10.0);
		while(__ticks)
    227a:	d1 f7       	brne	.-12     	; 0x2270 <H_Buzzer_Void_BuzzerTwice+0x48>
	_delay_ms(BUZZER_ON_TIME);
	M_DIO_Void_SetPinValue(BUZZER_PIN,LOW);
    227c:	84 e2       	ldi	r24, 0x24	; 36
    227e:	60 e0       	ldi	r22, 0x00	; 0
    2280:	0e 94 87 09 	call	0x130e	; 0x130e <M_DIO_Void_SetPinValue>
}
    2284:	08 95       	ret

00002286 <H_Buzzer_Void_BuzzerOnce>:
/*--------------------------------------------------------------------------------------------*/
/*   FUNCTION BODY   */
/*--------------------------------------------------------------------------------------------*/
void H_Buzzer_Void_BuzzerOnce(void)
{
	M_DIO_Void_SetPinValue(BUZZER_PIN,HIGH);
    2286:	84 e2       	ldi	r24, 0x24	; 36
    2288:	61 e0       	ldi	r22, 0x01	; 1
    228a:	0e 94 87 09 	call	0x130e	; 0x130e <M_DIO_Void_SetPinValue>
    228e:	20 e2       	ldi	r18, 0x20	; 32
    2290:	33 e0       	ldi	r19, 0x03	; 3
    2292:	40 e9       	ldi	r20, 0x90	; 144
    2294:	51 e0       	ldi	r21, 0x01	; 1
    2296:	ca 01       	movw	r24, r20
    2298:	01 97       	sbiw	r24, 0x01	; 1
    229a:	f1 f7       	brne	.-4      	; 0x2298 <H_Buzzer_Void_BuzzerOnce+0x12>
		{
			// wait 1/10 ms
			_delay_loop_2(((F_CPU) / 4e3) / 10);
			__ticks --;
    229c:	21 50       	subi	r18, 0x01	; 1
    229e:	30 40       	sbci	r19, 0x00	; 0
		__ticks = 1;
	else if (__tmp > 65535)
	{
		//	__ticks = requested delay in 1/10 ms
		__ticks = (uint16_t) (__ms * 10.0);
		while(__ticks)
    22a0:	d1 f7       	brne	.-12     	; 0x2296 <H_Buzzer_Void_BuzzerOnce+0x10>
	_delay_ms(BUZZER_ON_TIME);
	M_DIO_Void_SetPinValue(BUZZER_PIN,LOW);
    22a2:	84 e2       	ldi	r24, 0x24	; 36
    22a4:	60 e0       	ldi	r22, 0x00	; 0
    22a6:	0e 94 87 09 	call	0x130e	; 0x130e <M_DIO_Void_SetPinValue>
}
    22aa:	08 95       	ret

000022ac <H_Buzzer_Void_BuzzerOff>:
/*--------------------------------------------------------------------------------------------*/
/*   FUNCTION BODY   */
/*--------------------------------------------------------------------------------------------*/
void H_Buzzer_Void_BuzzerOff(void)
{
	M_DIO_Void_SetPinValue(BUZZER_PIN,LOW);
    22ac:	84 e2       	ldi	r24, 0x24	; 36
    22ae:	60 e0       	ldi	r22, 0x00	; 0
    22b0:	0e 94 87 09 	call	0x130e	; 0x130e <M_DIO_Void_SetPinValue>
}
    22b4:	08 95       	ret

000022b6 <H_Buzzer_Void_BuzzerOn>:
/*--------------------------------------------------------------------------------------------*/
/*   FUNCTION BODY   */
/*--------------------------------------------------------------------------------------------*/
void H_Buzzer_Void_BuzzerOn(void)
{
	M_DIO_Void_SetPinValue(BUZZER_PIN,HIGH);
    22b6:	84 e2       	ldi	r24, 0x24	; 36
    22b8:	61 e0       	ldi	r22, 0x01	; 1
    22ba:	0e 94 87 09 	call	0x130e	; 0x130e <M_DIO_Void_SetPinValue>
}
    22be:	08 95       	ret

000022c0 <H_Buzzer_Void_BuzzerTog>:
/*--------------------------------------------------------------------------------------------*/
/*   FUNCTION BODY   */
/*--------------------------------------------------------------------------------------------*/
void H_Buzzer_Void_BuzzerTog(void)
{
	M_DIO_Void_TogPin(BUZZER_PIN);
    22c0:	84 e2       	ldi	r24, 0x24	; 36
    22c2:	0e 94 55 0a 	call	0x14aa	; 0x14aa <M_DIO_Void_TogPin>
}
    22c6:	08 95       	ret

000022c8 <H_Buzzer_Void_BuzzerInit>:
/*--------------------------------------------------------------------------------------------*/
/*   FUNCTION BODY   */
/*--------------------------------------------------------------------------------------------*/
void H_Buzzer_Void_BuzzerInit(void)
{
	M_DIO_Void_SetPinDirection(BUZZER_PIN,OUTPUT);
    22c8:	84 e2       	ldi	r24, 0x24	; 36
    22ca:	61 e0       	ldi	r22, 0x01	; 1
    22cc:	0e 94 f2 08 	call	0x11e4	; 0x11e4 <M_DIO_Void_SetPinDirection>
}
    22d0:	08 95       	ret

000022d2 <A_Timer0Excution>:


void A_Timer0Excution(void)
{

}
    22d2:	08 95       	ret

000022d4 <A_Projects_EEPROMApplication>:

void A_Projects_EEPROMApplication(void)
{
    22d4:	ef 92       	push	r14
    22d6:	ff 92       	push	r15
    22d8:	1f 93       	push	r17
    22da:	cf 93       	push	r28
    22dc:	df 93       	push	r29
	H_Lcd_Void_LCDInit();
    22de:	0e 94 cf 0f 	call	0x1f9e	; 0x1f9e <H_Lcd_Void_LCDInit>
	H_EEPROM_Void_EEPROMInit();
    22e2:	0e 94 07 11 	call	0x220e	; 0x220e <H_EEPROM_Void_EEPROMInit>
	u8 x = H_EEPROM_U8_EEPROMRead(EEPROM_PAGE_NUMBER,0);
    22e6:	82 e0       	ldi	r24, 0x02	; 2
    22e8:	60 e0       	ldi	r22, 0x00	; 0
    22ea:	0e 94 d4 10 	call	0x21a8	; 0x21a8 <H_EEPROM_U8_EEPROMRead>
    22ee:	18 2f       	mov	r17, r24
	while(1)
	{
		H_Lcd_Void_LCDWriteNumber(x);
    22f0:	0f 2e       	mov	r0, r31
    22f2:	f0 e7       	ldi	r31, 0x70	; 112
    22f4:	ef 2e       	mov	r14, r31
    22f6:	f7 e1       	ldi	r31, 0x17	; 23
    22f8:	ff 2e       	mov	r15, r31
    22fa:	f0 2d       	mov	r31, r0
    22fc:	c0 e9       	ldi	r28, 0x90	; 144
    22fe:	d1 e0       	ldi	r29, 0x01	; 1
    2300:	61 2f       	mov	r22, r17
    2302:	70 e0       	ldi	r23, 0x00	; 0
    2304:	80 e0       	ldi	r24, 0x00	; 0
    2306:	90 e0       	ldi	r25, 0x00	; 0
    2308:	0e 94 45 0f 	call	0x1e8a	; 0x1e8a <H_Lcd_Void_LCDWriteNumber>
    230c:	97 01       	movw	r18, r14
    230e:	ce 01       	movw	r24, r28
    2310:	01 97       	sbiw	r24, 0x01	; 1
    2312:	f1 f7       	brne	.-4      	; 0x2310 <A_Projects_EEPROMApplication+0x3c>
		{
			// wait 1/10 ms
			_delay_loop_2(((F_CPU) / 4e3) / 10);
			__ticks --;
    2314:	21 50       	subi	r18, 0x01	; 1
    2316:	30 40       	sbci	r19, 0x00	; 0
		__ticks = 1;
	else if (__tmp > 65535)
	{
		//	__ticks = requested delay in 1/10 ms
		__ticks = (uint16_t) (__ms * 10.0);
		while(__ticks)
    2318:	d1 f7       	brne	.-12     	; 0x230e <A_Projects_EEPROMApplication+0x3a>
		_delay_ms(600);
		x++;
    231a:	1f 5f       	subi	r17, 0xFF	; 255
		H_EEPROM_Void_EEPROMWrite(EEPROM_PAGE_NUMBER,0,x);
    231c:	82 e0       	ldi	r24, 0x02	; 2
    231e:	60 e0       	ldi	r22, 0x00	; 0
    2320:	41 2f       	mov	r20, r17
    2322:	0e 94 ef 10 	call	0x21de	; 0x21de <H_EEPROM_Void_EEPROMWrite>
		H_Lcd_Void_LCDClear();
    2326:	0e 94 d9 0e 	call	0x1db2	; 0x1db2 <H_Lcd_Void_LCDClear>
    232a:	ea cf       	rjmp	.-44     	; 0x2300 <A_Projects_EEPROMApplication+0x2c>

0000232c <main>:

void A_Projects_EEPROMApplication(void);

int main()
{
	M_GIE_Void_GlobalInterruptEnable();
    232c:	0e 94 e6 08 	call	0x11cc	; 0x11cc <M_GIE_Void_GlobalInterruptEnable>
	M_Timer_Void_SetCallBack(A_Timer0Excution);
    2330:	89 e6       	ldi	r24, 0x69	; 105
    2332:	91 e1       	ldi	r25, 0x11	; 17
    2334:	0e 94 e6 07 	call	0xfcc	; 0xfcc <M_Timer_Void_SetCallBack>
	M_Timer_Void_TimerInit();
    2338:	0e 94 11 07 	call	0xe22	; 0xe22 <M_Timer_Void_TimerInit>
	M_Timer_Void_TimerSetTime(1000);
    233c:	68 ee       	ldi	r22, 0xE8	; 232
    233e:	73 e0       	ldi	r23, 0x03	; 3
    2340:	80 e0       	ldi	r24, 0x00	; 0
    2342:	90 e0       	ldi	r25, 0x00	; 0
    2344:	0e 94 1f 07 	call	0xe3e	; 0xe3e <M_Timer_Void_TimerSetTime>
	M_Timer_Void_TimerStart(TIMER0_CHANNEL);
    2348:	80 e0       	ldi	r24, 0x00	; 0
    234a:	0e 94 7f 07 	call	0xefe	; 0xefe <M_Timer_Void_TimerStart>

	return 0;
}
    234e:	80 e0       	ldi	r24, 0x00	; 0
    2350:	90 e0       	ldi	r25, 0x00	; 0
    2352:	08 95       	ret

00002354 <__mulsi3>:
    2354:	62 9f       	mul	r22, r18
    2356:	d0 01       	movw	r26, r0
    2358:	73 9f       	mul	r23, r19
    235a:	f0 01       	movw	r30, r0
    235c:	82 9f       	mul	r24, r18
    235e:	e0 0d       	add	r30, r0
    2360:	f1 1d       	adc	r31, r1
    2362:	64 9f       	mul	r22, r20
    2364:	e0 0d       	add	r30, r0
    2366:	f1 1d       	adc	r31, r1
    2368:	92 9f       	mul	r25, r18
    236a:	f0 0d       	add	r31, r0
    236c:	83 9f       	mul	r24, r19
    236e:	f0 0d       	add	r31, r0
    2370:	74 9f       	mul	r23, r20
    2372:	f0 0d       	add	r31, r0
    2374:	65 9f       	mul	r22, r21
    2376:	f0 0d       	add	r31, r0
    2378:	99 27       	eor	r25, r25
    237a:	72 9f       	mul	r23, r18
    237c:	b0 0d       	add	r27, r0
    237e:	e1 1d       	adc	r30, r1
    2380:	f9 1f       	adc	r31, r25
    2382:	63 9f       	mul	r22, r19
    2384:	b0 0d       	add	r27, r0
    2386:	e1 1d       	adc	r30, r1
    2388:	f9 1f       	adc	r31, r25
    238a:	bd 01       	movw	r22, r26
    238c:	cf 01       	movw	r24, r30
    238e:	11 24       	eor	r1, r1
    2390:	08 95       	ret

00002392 <__udivmodqi4>:
    2392:	99 1b       	sub	r25, r25
    2394:	79 e0       	ldi	r23, 0x09	; 9
    2396:	04 c0       	rjmp	.+8      	; 0x23a0 <__udivmodqi4_ep>

00002398 <__udivmodqi4_loop>:
    2398:	99 1f       	adc	r25, r25
    239a:	96 17       	cp	r25, r22
    239c:	08 f0       	brcs	.+2      	; 0x23a0 <__udivmodqi4_ep>
    239e:	96 1b       	sub	r25, r22

000023a0 <__udivmodqi4_ep>:
    23a0:	88 1f       	adc	r24, r24
    23a2:	7a 95       	dec	r23
    23a4:	c9 f7       	brne	.-14     	; 0x2398 <__udivmodqi4_loop>
    23a6:	80 95       	com	r24
    23a8:	08 95       	ret

000023aa <__udivmodsi4>:
    23aa:	a1 e2       	ldi	r26, 0x21	; 33
    23ac:	1a 2e       	mov	r1, r26
    23ae:	aa 1b       	sub	r26, r26
    23b0:	bb 1b       	sub	r27, r27
    23b2:	fd 01       	movw	r30, r26
    23b4:	0d c0       	rjmp	.+26     	; 0x23d0 <__udivmodsi4_ep>

000023b6 <__udivmodsi4_loop>:
    23b6:	aa 1f       	adc	r26, r26
    23b8:	bb 1f       	adc	r27, r27
    23ba:	ee 1f       	adc	r30, r30
    23bc:	ff 1f       	adc	r31, r31
    23be:	a2 17       	cp	r26, r18
    23c0:	b3 07       	cpc	r27, r19
    23c2:	e4 07       	cpc	r30, r20
    23c4:	f5 07       	cpc	r31, r21
    23c6:	20 f0       	brcs	.+8      	; 0x23d0 <__udivmodsi4_ep>
    23c8:	a2 1b       	sub	r26, r18
    23ca:	b3 0b       	sbc	r27, r19
    23cc:	e4 0b       	sbc	r30, r20
    23ce:	f5 0b       	sbc	r31, r21

000023d0 <__udivmodsi4_ep>:
    23d0:	66 1f       	adc	r22, r22
    23d2:	77 1f       	adc	r23, r23
    23d4:	88 1f       	adc	r24, r24
    23d6:	99 1f       	adc	r25, r25
    23d8:	1a 94       	dec	r1
    23da:	69 f7       	brne	.-38     	; 0x23b6 <__udivmodsi4_loop>
    23dc:	60 95       	com	r22
    23de:	70 95       	com	r23
    23e0:	80 95       	com	r24
    23e2:	90 95       	com	r25
    23e4:	9b 01       	movw	r18, r22
    23e6:	ac 01       	movw	r20, r24
    23e8:	bd 01       	movw	r22, r26
    23ea:	cf 01       	movw	r24, r30
    23ec:	08 95       	ret

000023ee <__divmodsi4>:
    23ee:	97 fb       	bst	r25, 7
    23f0:	09 2e       	mov	r0, r25
    23f2:	05 26       	eor	r0, r21
    23f4:	0e d0       	rcall	.+28     	; 0x2412 <__divmodsi4_neg1>
    23f6:	57 fd       	sbrc	r21, 7
    23f8:	04 d0       	rcall	.+8      	; 0x2402 <__divmodsi4_neg2>
    23fa:	d7 df       	rcall	.-82     	; 0x23aa <__udivmodsi4>
    23fc:	0a d0       	rcall	.+20     	; 0x2412 <__divmodsi4_neg1>
    23fe:	00 1c       	adc	r0, r0
    2400:	38 f4       	brcc	.+14     	; 0x2410 <__divmodsi4_exit>

00002402 <__divmodsi4_neg2>:
    2402:	50 95       	com	r21
    2404:	40 95       	com	r20
    2406:	30 95       	com	r19
    2408:	21 95       	neg	r18
    240a:	3f 4f       	sbci	r19, 0xFF	; 255
    240c:	4f 4f       	sbci	r20, 0xFF	; 255
    240e:	5f 4f       	sbci	r21, 0xFF	; 255

00002410 <__divmodsi4_exit>:
    2410:	08 95       	ret

00002412 <__divmodsi4_neg1>:
    2412:	f6 f7       	brtc	.-4      	; 0x2410 <__divmodsi4_exit>
    2414:	90 95       	com	r25
    2416:	80 95       	com	r24
    2418:	70 95       	com	r23
    241a:	61 95       	neg	r22
    241c:	7f 4f       	sbci	r23, 0xFF	; 255
    241e:	8f 4f       	sbci	r24, 0xFF	; 255
    2420:	9f 4f       	sbci	r25, 0xFF	; 255
    2422:	08 95       	ret

00002424 <__prologue_saves__>:
    2424:	2f 92       	push	r2
    2426:	3f 92       	push	r3
    2428:	4f 92       	push	r4
    242a:	5f 92       	push	r5
    242c:	6f 92       	push	r6
    242e:	7f 92       	push	r7
    2430:	8f 92       	push	r8
    2432:	9f 92       	push	r9
    2434:	af 92       	push	r10
    2436:	bf 92       	push	r11
    2438:	cf 92       	push	r12
    243a:	df 92       	push	r13
    243c:	ef 92       	push	r14
    243e:	ff 92       	push	r15
    2440:	0f 93       	push	r16
    2442:	1f 93       	push	r17
    2444:	cf 93       	push	r28
    2446:	df 93       	push	r29
    2448:	cd b7       	in	r28, 0x3d	; 61
    244a:	de b7       	in	r29, 0x3e	; 62
    244c:	ca 1b       	sub	r28, r26
    244e:	db 0b       	sbc	r29, r27
    2450:	0f b6       	in	r0, 0x3f	; 63
    2452:	f8 94       	cli
    2454:	de bf       	out	0x3e, r29	; 62
    2456:	0f be       	out	0x3f, r0	; 63
    2458:	cd bf       	out	0x3d, r28	; 61
    245a:	09 94       	ijmp

0000245c <__epilogue_restores__>:
    245c:	2a 88       	ldd	r2, Y+18	; 0x12
    245e:	39 88       	ldd	r3, Y+17	; 0x11
    2460:	48 88       	ldd	r4, Y+16	; 0x10
    2462:	5f 84       	ldd	r5, Y+15	; 0x0f
    2464:	6e 84       	ldd	r6, Y+14	; 0x0e
    2466:	7d 84       	ldd	r7, Y+13	; 0x0d
    2468:	8c 84       	ldd	r8, Y+12	; 0x0c
    246a:	9b 84       	ldd	r9, Y+11	; 0x0b
    246c:	aa 84       	ldd	r10, Y+10	; 0x0a
    246e:	b9 84       	ldd	r11, Y+9	; 0x09
    2470:	c8 84       	ldd	r12, Y+8	; 0x08
    2472:	df 80       	ldd	r13, Y+7	; 0x07
    2474:	ee 80       	ldd	r14, Y+6	; 0x06
    2476:	fd 80       	ldd	r15, Y+5	; 0x05
    2478:	0c 81       	ldd	r16, Y+4	; 0x04
    247a:	1b 81       	ldd	r17, Y+3	; 0x03
    247c:	aa 81       	ldd	r26, Y+2	; 0x02
    247e:	b9 81       	ldd	r27, Y+1	; 0x01
    2480:	ce 0f       	add	r28, r30
    2482:	d1 1d       	adc	r29, r1
    2484:	0f b6       	in	r0, 0x3f	; 63
    2486:	f8 94       	cli
    2488:	de bf       	out	0x3e, r29	; 62
    248a:	0f be       	out	0x3f, r0	; 63
    248c:	cd bf       	out	0x3d, r28	; 61
    248e:	ed 01       	movw	r28, r26
    2490:	08 95       	ret

00002492 <_exit>:
    2492:	f8 94       	cli

00002494 <__stop_program>:
    2494:	ff cf       	rjmp	.-2      	; 0x2494 <__stop_program>
